MPASM 5.84               UNV_MASTER_MAIN.ASM   4-29-2026  14:26:15         PAGE  1


LOC  OBJECT CODE     LINE SOURCE TEXT
  VALUE

                      00001 ;****************************************************************************
                      00002 ;                                                                           *
                      00003 ;           File Name: Unv_Master_Main.asm                                  *
                      00004 ;           Date: 4/29/25                                                   *
                      00005 ;           File Version: 1                                                 *
                      00006 ;           Author:    Zac Christensen                                      *
                      00007 ;           Company:   Idaho State Universisty; RCET                        *
                      00008 ;           Description:Main Source Code for the Universal Control          *
                      00009 ;                       System Master Board                                 *
                      00010 ;                                                                           *
                      00011 ;****************************************************************************
                      00012 ;                                                                           *
                      00013 ;           Revision History:                                               *
                      00014 ;     1.Added Robot Address Updating from Port B; 1/13/25                   *
                      00015 ;     2.Added UART RX Interrupt Handler and Include file; 1/14/25           *
                      00016 ;     3.Added New Data Flag Checking and URC Decoding; 1/15/25              *
                      00017 ;     4.Added Timer 2 Interrupt Handler; 1/20/25                            *
                      00018 ;     5.Added Timer 2 Interrupt Connection Time out Check(0.5s); 1/22/25    *
                      00019 ;     6.Tested UART RX, Decoding, and Connection Timeout; 1/27/25           *
                      00020 ;     7.Added I2C COM Timer into Timer 2; 1/29/25                           *
                      00021 ;     8.Added SEND_I2C Subroutine to Handle Drive Control Board; 1/29/25    *
                      00022 ;     9.Added Peripheral Board I2C TX to SEND_I2C Subroutine; 3/3/25        *
                      00023 ;     10.Added Comments for Template Code; 4./28/25                         *
                      00024 ;     x.                                                                    *
                      00025 ;     x.                                                                    *
                      00026 ;                                                                           *
                      00027 ;****************************************************************************
                      00028     
                      00029 #INCLUDE <p16f1788.inc>                         ;Processor specific variable definitions
                      00001         LIST
                      00002 
                      00003 ;==========================================================================
                      00004 ; Build date : Oct 24 2019
                      00005 ;  MPASM PIC16F1788 processor include
                      00006 ; 
                      00007 ;  (c) Copyright 1999-2019 Microchip Technology, All rights reserved
                      00008 ;==========================================================================
                      00009 
Message[301]: MESSAGE: (Processor-header file mismatch.  Verify selected processor.)
                      03024         LIST
                      00030 #INCLUDE <Unv_Master_PIC_SetUp.inc>             ;Universal Main Board PIC Set Up
                      00001 ;****************************************************************************
                      00002 ;                                                                           *
                      00003 ;           File Name: Unv_Master_PIC_SetUp.INC                             *
                      00004 ;           Date: 4/29/25                                                   *
                      00005 ;           File Version: 1                                                 *
                      00006 ;           Author:    Zac Christensen                                      *
                      00007 ;           Company:   Idaho State University; RCET                         *
                      00008 ;           Description: Setup for PIC16f1788 for Universal Control         *
                      00009 ;                        System for Master Board                            * 
                      00010 ;                                                                           *
                      00011 ;****************************************************************************
                      00012 ;                                                                           *
MPASM 5.84               UNV_MASTER_MAIN.ASM   4-29-2026  14:26:15         PAGE  2


LOC  OBJECT CODE     LINE SOURCE TEXT
  VALUE

                      00013 ;           Revision History:                                               *
                      00014 ;       1. Added Comments and Adjusted for Template Code;4/29/25            *
                      00015 ;       2.                                                                  *
                      00016 ;       3.                                                                  *
                      00017 ;       4.                                                                  *
                      00018 ;       5.                                                                  *
                      00019 ;       6.                                                                  *
                      00020 ;       7.                                                                  *
                      00021 ;       8.                                                                  *
                      00022 ;       9.                                                                  *
                      00023 ;       10.                                                                 *
                      00024 ;                                                                           *
                      00025 ;****************************************************************************
                      00026     
                      00027 ;******************************************             
                      00028 ;Define Constants
                      00029 ;******************************************
                      00030 #Define         BAUD            D'100'                  ;Desired Baud Rate in Kbps for I2C
                      00031 #Define         FOSC            D'16000'                ;Oscillator Clock in KHz This must be filled
                      00032     
                      00033 ;******************************************             
                      00034 ;Define Variable Registers
                      00035 ;******************************************
  00000020            00036 BYTE_COUNT          EQU 0X20        ;Register to count Receied Bytes
  00000021            00037 ROBOT_ADDR          EQU 0X21        ;Register to Save Robot Address (Port B Dip Switch Values)
  00000022            00038 JOY1_UD             EQU 0X22        ;Register to Save Joystick 1 Up-Down Data
  00000023            00039 JOY1_LR             EQU 0X23        ;Register to Save Joystick 1 Left-Right Data
  00000024            00040 JOY2_UD             EQU 0X24        ;Register to Save Joystick 2 Up-Down Data
  00000025            00041 JOY2_LR             EQU 0X25        ;Register to Save Joystick 2 Left-Right Data
  00000026            00042 JOY3_UD             EQU 0X26        ;Register to Save Joystick 3 Up-Down Data
  00000027            00043 JOY3_LR             EQU 0X27        ;Register to Save Joystick 3 Left-Right Data
  00000028            00044 BUTTON_STATUS_1     EQU 0X28        ;Register to Save Button Status
  00000029            00045 BUTTON_STATUS_2     EQU 0X29        ;Register to Save Button Status
  0000002A            00046 CURRENT_DATA_PACK   EQU 0X2A        ;Register to Save Which Data Packet was Last Received
  0000002B            00047 MEM_SAVE_1          EQU 0X2B        ;Register to temp save RX Data Variable 1
  0000002C            00048 MEM_SAVE_2          EQU 0X2C        ;Register to temp save RX Data Variable 2
  0000002D            00049 MEM_SAVE_3          EQU 0X2D        ;Register to temp save RX Data Variable 3
  0000002E            00050 NEW_RX_DATA         EQU 0X2E        ;Register to Track New Data Status (bit 0 Set = New Data Available, 
                            Bit 1 for I2C Data Send)
  0000002F            00051 CONNECT_CHK_COUNT   EQU 0X2F        ;Register to Track Connection Status (Increment On TMR 2; Clear on R
                            X)
  00000030            00052 I2C_COM_DELAY       EQU 0X30        ;Register to count when I2C COM should occur (Flag Set in Timer 2; N
                            EW_RX_DATA,1)
                      00053 ;******************************************             
                      00054 ;Start of Setup File Code
                      00055 ;******************************************
                      00056 SETUP_CODE CODE
                      00057  
0000                  00058 INITIALIZE
                      00059 ;*** SFR SETUP **********
0000   0020           00060     BANKSEL     PORTB
0001   080D           00061     MOVFW       PORTB
0002   0020           00062     BANKSEL     ROBOT_ADDR
MPASM 5.84               UNV_MASTER_MAIN.ASM   4-29-2026  14:26:15         PAGE  3


LOC  OBJECT CODE     LINE SOURCE TEXT
  VALUE

0003   00A1           00063     MOVWF       ROBOT_ADDR          ;Initialize Robot Address as the Status of PortB.
                      00064     
0004   01A0           00065     CLRF        BYTE_COUNT          ;Initialize with Byte count of 0
                      00066     
0005   3080           00067     MOVLW       D'128'
0006   00A2           00068     MOVWF       JOY1_UD
0007   00A3           00069     MOVWF       JOY1_LR
0008   00A4           00070     MOVWF       JOY2_UD
0009   00A5           00071     MOVWF       JOY2_LR
000A   00A6           00072     MOVWF       JOY3_UD
000B   00A7           00073     MOVWF       JOY3_LR             ;Initialize With all Joystick Data at Mid Point
000C   01A8           00074     CLRF        BUTTON_STATUS_1
000D   01A8           00075     CLRF        BUTTON_STATUS_1     ;Initialize With all Buttons Not Pressed
000E   01AE           00076     CLRF        NEW_RX_DATA         ;Initialize With No New Data
000F   01AF           00077     CLRF        CONNECT_CHK_COUNT
0010   01B0           00078     CLRF        I2C_COM_DELAY       ;Initialize With Connection Time out and I2C Delay counts at 0
                      00079 ;***Oscillator Set up****
0011   0021           00080     BANKSEL     OSCCON
0012   3078           00081     MOVLW       H'78'
Message[302]: Register in operand not in bank 0.  Ensure that bank bits are correct.
0013   0099           00082     MOVWF       OSCCON                  ;Set Internal Oscilator to 16Mhz
                      00083 
0014   002A           00084     BANKSEL     CLKRCON
0015   3000           00085     MOVLW       H'00'
Message[302]: Register in operand not in bank 0.  Ensure that bank bits are correct.
0016   009A           00086     MOVWF       CLKRCON                 ;Disable Output CLock Reference
                      00087  
                      00088 ;*** SET OPTION_REG: ****
0017   0021           00089     BANKSEL     OPTION_REG
Message[302]: Register in operand not in bank 0.  Ensure that bank bits are correct.
0018   0195           00090     CLRF        OPTION_REG              ;Weak Pull Up Disabled, Interrupt Edge Selection, Timer Clock Se
                            t-Up
                      00091     
                      00092 ;*** SET CCPXCON REG: **
0019   0025           00093     BANKSEL     CCP1CON
Message[302]: Register in operand not in bank 0.  Ensure that bank bits are correct.
001A   0193           00094     CLRF        CCP1CON                 ;DISABLE PWM & CCP
                      00095     
001B   0025           00096     BANKSEL     CCP2CON
Message[302]: Register in operand not in bank 0.  Ensure that bank bits are correct.
001C   019A           00097     CLRF        CCP2CON
                      00098     
001D   0026           00099     BANKSEL     CCP3CON
Message[302]: Register in operand not in bank 0.  Ensure that bank bits are correct.
001E   0193           00100     CLRF        CCP3CON
                      00101 ;*** TIMER 1 SETUP *****
001F   0020           00102     BANKSEL     T1CON
0020   0198           00103     CLRF        T1CON                   ;DISABLE TIMER 1
                      00104     
                      00105 ;*** TIMER 2 SETUP *****
0021   0020           00106     BANKSEL     T2CON
0022   3000           00107     MOVLW       H'00'                   ;Sets Prescaler and Postscaler to 1:1 (Wait to enable timer)
0023   009C           00108     MOVWF       T2CON
MPASM 5.84               UNV_MASTER_MAIN.ASM   4-29-2026  14:26:15         PAGE  4


LOC  OBJECT CODE     LINE SOURCE TEXT
  VALUE

0024   0020           00109     BANKSEL     PR2             
0025   30FA           00110     MOVLW       D'250'                  ;Set PR2 count 
0026   009B           00111     MOVWF       PR2     
                      00112     
                      00113 ;*** Alternate Pin Functions ****
0027   0022           00114     BANKSEL     APFCON1
0028   3000           00115     MOVLW       H'00'
Message[302]: Register in operand not in bank 0.  Ensure that bank bits are correct.
0029   009D           00116     MOVWF       APFCON1                 ;Set Comm on Port C CCP on Port B
                      00117     
002A   0022           00118     BANKSEL     APFCON2
002B   3001           00119     MOVLW       H'01'
Message[302]: Register in operand not in bank 0.  Ensure that bank bits are correct.
002C   009C           00120     MOVWF       APFCON2                 ;Set Save/Select on Port A CCP3 on Port B
                      00121     
                      00122 ;*** PORT A SETUP ****
002D   0023           00123     BANKSEL     ANSELA
Message[302]: Register in operand not in bank 0.  Ensure that bank bits are correct.
002E   018C           00124     CLRF        ANSELA                  ;Disable Analog Input
                      00125     
002F   0024           00126     BANKSEL     WPUA
Message[302]: Register in operand not in bank 0.  Ensure that bank bits are correct.
0030   018C           00127     CLRF        WPUA                    ;Disable Weak Pull Ups
                      00128     
0031   0025           00129     BANKSEL     ODCONA
Message[302]: Register in operand not in bank 0.  Ensure that bank bits are correct.
0032   018C           00130     CLRF        ODCONA                  ;Disable Open Drain
                      00131     
0033   0026           00132     BANKSEL     SLRCONA
Message[302]: Register in operand not in bank 0.  Ensure that bank bits are correct.
0034   018C           00133     CLRF        SLRCONA                 ;Disable Slew Rate Limit
                      00134     
0035   0027           00135     BANKSEL     INLVLA
0036   30FF           00136     MOVLW       H'FF'
Message[302]: Register in operand not in bank 0.  Ensure that bank bits are correct.
0037   008C           00137     MOVWF       INLVLA                  ;Set Input Threshold Voltage to CMOS Levels
                      00138     
0038   0022           00139     BANKSEL     LATA
0039   30FF           00140     MOVLW       H'FF'
Message[302]: Register in operand not in bank 0.  Ensure that bank bits are correct.
003A   008C           00141     MOVWF       LATA                    ;Clear Input Latches
                      00142     
003B   0021           00143     BANKSEL     TRISA
003C   3000           00144     MOVLW       H'00'
Message[302]: Register in operand not in bank 0.  Ensure that bank bits are correct.
003D   008C           00145     MOVWF       TRISA                   ;SET Port A as Output
                      00146     
003E   0020           00147     BANKSEL     PORTA
003F   30FF           00148     MOVLW       H'FF'
0040   008C           00149     MOVWF       PORTA                   ;Initialize with Port A all High
                      00150     
                      00151 ;*** PORT B SETUP **** 
0041   0023           00152     BANKSEL     ANSELB
MPASM 5.84               UNV_MASTER_MAIN.ASM   4-29-2026  14:26:15         PAGE  5


LOC  OBJECT CODE     LINE SOURCE TEXT
  VALUE

Message[302]: Register in operand not in bank 0.  Ensure that bank bits are correct.
0042   018D           00153     CLRF        ANSELB                  ;Disable Analog Input
                      00154     
0043   0024           00155     BANKSEL     WPUB
Message[302]: Register in operand not in bank 0.  Ensure that bank bits are correct.
0044   018D           00156     CLRF        WPUB                    ;Disable Weak Pull Ups
                      00157     
0045   0025           00158     BANKSEL     ODCONB
Message[302]: Register in operand not in bank 0.  Ensure that bank bits are correct.
0046   018D           00159     CLRF        ODCONB                  ;Disable Open Drain
                      00160     
0047   0026           00161     BANKSEL     SLRCONB
Message[302]: Register in operand not in bank 0.  Ensure that bank bits are correct.
0048   018D           00162     CLRF        SLRCONB                 ;Disable Slew Rate Limit
                      00163     
0049   0027           00164     BANKSEL     INLVLB
004A   30FF           00165     MOVLW       H'FF'
Message[302]: Register in operand not in bank 0.  Ensure that bank bits are correct.
004B   008D           00166     MOVWF       INLVLB                  ;Set Input Threshold Voltage to CMOS Levels
                      00167     
004C   0022           00168     BANKSEL     LATB
Message[302]: Register in operand not in bank 0.  Ensure that bank bits are correct.
004D   018D           00169     CLRF        LATB                    ;Clear Input Latches
                      00170     
004E   0021           00171     BANKSEL     TRISB
004F   30FF           00172     MOVLW       H'FF'
Message[302]: Register in operand not in bank 0.  Ensure that bank bits are correct.
0050   008D           00173     MOVWF       TRISB                   ;SET Port B as Inputs
                      00174     
                      00175 ;*** PORT C SETUP **** 
0051   0023           00176     BANKSEL     ANSELC
Message[302]: Register in operand not in bank 0.  Ensure that bank bits are correct.
0052   018E           00177     CLRF        ANSELC                  ;Disable Analog Input
                      00178     
0053   0024           00179     BANKSEL     WPUC
Message[302]: Register in operand not in bank 0.  Ensure that bank bits are correct.
0054   018E           00180     CLRF        WPUC                    ;Disable Weak Pull Ups
                      00181     
0055   0025           00182     BANKSEL     ODCONC
Message[302]: Register in operand not in bank 0.  Ensure that bank bits are correct.
0056   018E           00183     CLRF        ODCONC                  ;Disable Open Drain
                      00184     
0057   0026           00185     BANKSEL     SLRCONC
Message[302]: Register in operand not in bank 0.  Ensure that bank bits are correct.
0058   018E           00186     CLRF        SLRCONC                 ;Disable Slew Rate Limit
                      00187     
0059   0027           00188     BANKSEL     INLVLC
005A   30FF           00189     MOVLW       H'FF'
Message[302]: Register in operand not in bank 0.  Ensure that bank bits are correct.
005B   008E           00190     MOVWF       INLVLC                  ;Set Input Threshold Voltage to CMOS Levels
                      00191     
005C   0022           00192     BANKSEL     LATC
Message[302]: Register in operand not in bank 0.  Ensure that bank bits are correct.
MPASM 5.84               UNV_MASTER_MAIN.ASM   4-29-2026  14:26:15         PAGE  6


LOC  OBJECT CODE     LINE SOURCE TEXT
  VALUE

005D   018E           00193     CLRF        LATC                    ;Clear Input Latches
                      00194     
005E   0021           00195     BANKSEL     TRISC
005F   30FF           00196     MOVLW       H'FF'
Message[302]: Register in operand not in bank 0.  Ensure that bank bits are correct.
0060   008E           00197     MOVWF       TRISC                   ;SET Port C as Output
                      00198     
0061   0020           00199     BANKSEL     PORTC
0062   158E           00200     BSF         PORTC,3
0063   160E           00201     BSF         PORTC,4
                      00202     
                      00203 ;*** PORT E SETUP ****
                      00204 ;28 Pin Package Does Not Have Port E
                      00205     
                      00206 ;*** Interrupt Set-Up : ****
0064   0020           00207     BANKSEL     INTCON
0065   3040           00208     MOVLW       H'40'                   ;Enable Peripheral Interrupts (Wait On Global)
0066   008B           00209     MOVWF       INTCON
                      00210     
0067   0021           00211     BANKSEL     PIE1
0068   3022           00212     MOVLW       H'22'
Message[302]: Register in operand not in bank 0.  Ensure that bank bits are correct.
0069   0091           00213     MOVWF       PIE1                    ;Enable UART RX and Timer 2 Interrupts
                      00214  
006A   0021           00215     BANKSEL     PIE2
006B   3000           00216     MOVLW       H'00'
Message[302]: Register in operand not in bank 0.  Ensure that bank bits are correct.
006C   0092           00217     MOVWF       PIE2                    ;Disable Interrupts
                      00218     
006D   0021           00219     BANKSEL     PIE3
Message[302]: Register in operand not in bank 0.  Ensure that bank bits are correct.
006E   1213           00220     BCF         PIE3, 4                 ;Disable CCP3 Interrupt
                      00221     
006F   0021           00222     BANKSEL     PIE4
0070   3000           00223     MOVLW       H'00'
Message[302]: Register in operand not in bank 0.  Ensure that bank bits are correct.
0071   0094           00224     MOVWF       PIE4                    ;Disable Interrupts
                      00225     
                      00226     ;*** UART Set Up: *****
0072   0023           00227     BANKSEL     TXSTA
0073   3086           00228     MOVLW       H'86'
Message[302]: Register in operand not in bank 0.  Ensure that bank bits are correct.
0074   009E           00229     MOVWF       TXSTA                   ;Async, 8 Bit Tx, No Break Char, BRGH High (Wait On enable)
                      00230     
0075   0023           00231     BANKSEL     RCSTA
0076   3080           00232     MOVLW       H'80'
Message[302]: Register in operand not in bank 0.  Ensure that bank bits are correct.
0077   009D           00233     MOVWF       RCSTA                   ;Serial Port Enable, 8 Bit Rx, Disable Adress Selection (Wait fo
                            r Cont. Rx Enable)
                      00234     
0078   0023           00235     BANKSEL     BAUDCTL
0079   3048           00236     MOVLW       H'48'
Message[302]: Register in operand not in bank 0.  Ensure that bank bits are correct.
MPASM 5.84               UNV_MASTER_MAIN.ASM   4-29-2026  14:26:15         PAGE  7


LOC  OBJECT CODE     LINE SOURCE TEXT
  VALUE

007A   009F           00237     MOVWF       BAUDCTL                 ;Tx Non-Inverted, Baud Rate Gen 16 Bit, Auto Baud Detect Off
                      00238     
007B   0023           00239     BANKSEL     SPBRG
007C   3022           00240     MOVLW       D'34'
Message[302]: Register in operand not in bank 0.  Ensure that bank bits are correct.
007D   009B           00241     MOVWF       SPBRG                   
                      00242     
007E   0023           00243     BANKSEL     SPBRGH
Message[302]: Register in operand not in bank 0.  Ensure that bank bits are correct.
007F   019C           00244     CLRF        SPBRGH                  ;Set Baud Rate to 115.2K  ( ((16MHz/115.2K)/4) - 1 = 34 )
                      00245     
0080   0008           00246     RETURN                              ;END OF SETUP ROUTINE
                      00031 #INCLUDE <URC_RX_Handler.inc>                   ;RX of URC controller Routines
                      00001 ;****************************************************************************
                      00002 ;                                                                           *
                      00003 ;           File Name: URC_RX_Handler.inc                                   *
                      00004 ;           Date: 1/14/25                                                   *
                      00005 ;           File Version: 1                                                 *
                      00006 ;           Author:    Zac Christensen                                      *
                      00007 ;           Company:   Idaho State Univerisy; RCET                          *
                      00008 ;           Description:  Handles UART RX and URC Data Packet Decoding      *
                      00009 ;                                                                           *
                      00010 ;****************************************************************************
                      00011 ;                                                                           *
                      00012 ;           Revision History:                                               *
                      00013 ;       1.Added UART_RX to Save RX Data into Temp Registers; 1/14/25        *
                      00014 ;       2.Added DECODE_URC.  Decodes Temp Reg into Controller State; 1/15/25*
                      00015 ;       3.                                                                  *
                      00016 ;       4.                                                                  *
                      00017 ;       5.                                                                  *
                      00018 ;                                                                           *
                      00019 ;****************************************************************************
                      00020     
                      00021     
                      00022 URC_RX_HANDLERS CODE
                      00023 ;****************************************************************************************
                      00024 ;****IMPORTANT NOTE: To properly use this include file the PIC setup needs to define  ***
                      00025 ;**** general purpose registers used in this file:                                    ***
                      00026 ; BYTE_COUNT            EQU     0X__        ;Register to count Receied Bytes
                      00027 ; ROBOT_ADDR            EQU     0X__        ;Register to Save Robot Address (Port B Dip Switch Values)
                      00028 ; JOY1_UD               EQU     0X__        ;Register to Save Joystick 1 Up-Down Data
                      00029 ; JOY1_LR               EQU     0X__        ;Register to Save Joystick 1 Left-Right Data
                      00030 ; JOY2_UD               EQU     0X__        ;Register to Save Joystick 2 Up-Down Data
                      00031 ; JOY2_LR               EQU     0X__        ;Register to Save Joystick 2 Left-Right Data
                      00032 ; JOY3_UD               EQU     0X__        ;Register to Save Joystick 3 Up-Down Data
                      00033 ; JOY3_LR               EQU     0X__        ;Register to Save Joystick 3 Left-Right Data
                      00034 ; BUTTON_STATUS_1       EQU     0X__        ;Register to Save Button Status
                      00035 ; BUTTON_STATUS_2       EQU     0X__        ;Register to Save Button Status
                      00036 ; CURRENT_DATA_PACK     EQU     0X__        ;Register to Save Which Data Packet was Last Received
                      00037 ; MEM_SAVE_1            EQU     0X__        ;Register to temp save RX Data Variable 1
                      00038 ; MEM_SAVE_2            EQU     0X__        ;Register to temp save RX Data Variable 2
                      00039 ; MEM_SAVE_3            EQU     0X__        ;Register to temp save RX Data Variable 3
                      00040 ; NEW_RX_DATA           EQU     0X__        ;Register to Track New Data Status (bit 0 Set = New Data Ava
MPASM 5.84               UNV_MASTER_MAIN.ASM   4-29-2026  14:26:15         PAGE  8


LOC  OBJECT CODE     LINE SOURCE TEXT
  VALUE

                            ilable, Bit 1 for I2C Data Send)
                      00041 ; CONNECT_CHK_COUNT     EQU     0X__        ;Register to Track Connection Status (Increment On TMR 2; Cl
                            ear on RX)
                      00042 ;*******************************************************************************************************
                            *********************************
                      00043  
                      00044 ;****************************************************************************************
                      00045 ;****                   Data Pack from Universal Remote Control(URC)                  ***
                      00046 ;****************************************************************************************
                      00047 ;_______________________________________________________________________________________________________
                            _____________________________________
                      00048 ;| Sync  | Robot Address | Command |             Byte 1                 |            Byte 2             
                              |             Byte 3              |
                      00049 ;|0x24($)| Robot Address | 0x4A(J) | Joystick 1 Up-Down High Byte       | Joystick 1 Right-Left High Byt
                            e | Joystick 2 Up-Down High Byte    |
                      00050 ;|0x24($)| Robot Address | 0x6A(j) | Joystick 2 Right-Left High Byte    | Joystick 3 Up-Down High Byte  
                              | Joystick 3 Right-Left High Byte |
                      00051 ;|0x24($)| Robot Address | 0x42(B) | Button Data Byte 1                 | Button Data Byte 2            
                              | 0x00 (Not Used)                 |
                      00052 ;_______________________________________________________________________________________________________
                            _____________________________________
                      00053  
                      00054 ;****************************************************************************************
                      00055 ;****                           Button Data Bit Maps                                  ***
                      00056 ;****************************************************************************************
                      00057 ;_____________________________          _____________________________
                      00058 ;|    Button Data Byte 1     |          |     Button Data Byte 2    |
                      00059 ;| Bit   |      Button       |          |  Bit  |       Button      |
                      00060 ;|   0   | Down Face Button  |          |   0   | Joystick 3 Button |
                      00061 ;|   1   | Right Face Button |          |  1-7  |     Not Used      |
                      00062 ;|   2   | Left Face Button  |          _____________________________
                      00063 ;|   3   | Up Face Button    |
                      00064 ;|   4   | Left Bumper       |
                      00065 ;|   5   | Right Bumper      |
                      00066 ;|   6   | Joystick 1 Button |
                      00067 ;|   7   | Joystick 2 Button |
                      00068 ;_____________________________
                      00069  
                      00070 ;***************************************************************************************
                      00071 ;****UART_RX Function Should be Called when a Byte is Received From UART             ***
                      00072 ;****This Function will Determine the Byte Received, Verify Handshake and Address,   ***
                      00073 ;****Save the Received Byte into Temp Variables, and Set a flag to signal to Decode  ***
                      00074 ;***************************************************************************************
0000                  00075 UART_RX
0000   0020           00076  BANKSEL    BYTE_COUNT
0001   3000           00077  MOVLW      H'00'
0002   0220           00078  SUBWF      BYTE_COUNT,0            ;Subtract BYTE_COUNT - W; Result Store in W
0003   1903           00079  BTFSC      STATUS,2                ;Check Zero Bit.  1 if Zero; 0 if not Zero
0004   2???           00080  GOTO       BYTE_1                  ;First Received Byte Check for HandShake CHAR 
                      00081  
0005   3001           00082  MOVLW      H'01'
0006   0220           00083  SUBWF      BYTE_COUNT,0            ;Subtract BYTE_COUNT - W; Result Store in W
0007   1903           00084  BTFSC      STATUS,2                ;Check Zero Bit.  1 if Zero; 0 if not Zero
MPASM 5.84               UNV_MASTER_MAIN.ASM   4-29-2026  14:26:15         PAGE  9


LOC  OBJECT CODE     LINE SOURCE TEXT
  VALUE

0008   2???           00085  GOTO       BYTE_2                  ;Second Received Byte Check for Robot Address 
                      00086  
0009   3002           00087  MOVLW      H'02'
000A   0220           00088  SUBWF      BYTE_COUNT,0            ;Subtract BYTE_COUNT - W; Result Store in W
000B   1903           00089  BTFSC      STATUS,2                ;Check Zero Bit.  1 if Zero; 0 if not Zero
000C   2???           00090  GOTO       BYTE_3                  ;Third Received Byte Save as Data Packet Command 
                      00091  
000D   3003           00092  MOVLW      H'03'
000E   0220           00093  SUBWF      BYTE_COUNT,0            ;Subtract BYTE_COUNT - W; Result Store in W
000F   1903           00094  BTFSC      STATUS,2                ;Check Zero Bit.  1 if Zero; 0 if not Zero
0010   2???           00095  GOTO       BYTE_4                  ;Fourth Received Byte Save as Memory Save 1 
                      00096     
0011   3004           00097  MOVLW      H'04'
0012   0220           00098  SUBWF      BYTE_COUNT,0            ;Subtract BYTE_COUNT - W; Result Store in W
0013   1903           00099  BTFSC      STATUS,2                ;Check Zero Bit.  1 if Zero; 0 if not Zero
0014   2???           00100  GOTO       BYTE_5                  ;Fifth Received Byte Save as Memory Save 2 
                      00101  
0015   3005           00102  MOVLW      H'05'
0016   0220           00103  SUBWF      BYTE_COUNT,0            ;Subtract BYTE_COUNT - W; Result Store in W
0017   1903           00104  BTFSC      STATUS,2                ;Check Zero Bit.  1 if Zero; 0 if not Zero
0018   2???           00105  GOTO       BYTE_6                  ;Sixth Received Byte Save as Memory Save 3 
                      00106  
0019   01A0           00107  CLRF       BYTE_COUNT
001A   2???           00108  GOTO       UART_RX_END             ;Unknown Byte Count (NOT 0-6 Bytes) Clear Count and Exit
                      00109  
001B                  00110 BYTE_1  ;**First Received Byte Check for HandShake CHAR**
001B   3024           00111  MOVLW      H'24'
001C   0023           00112  BANKSEL    RCREG
Message[302]: Register in operand not in bank 0.  Ensure that bank bits are correct.
001D   0219           00113  SUBWF      RCREG,0                 ;Subtract RCREG - W; Result Store in W
001E   1903           00114  BTFSC      STATUS,2
001F   2???           00115  GOTO       HANDSHAKE_VERIFIED      ;HandShake Confirmed Increment Byte Count
0020   0020           00116  BANKSEL    BYTE_COUNT
0021   01A0           00117  CLRF       BYTE_COUNT
0022   2???           00118  GOTO       UART_RX_END             ;HandShake Not Verified. Clear Count and Exit
0023                  00119 HANDSHAKE_VERIFIED
0023   0020           00120  BANKSEL    BYTE_COUNT
Message[305]: Using default destination of 1 (file).
0024   0AA0           00121  INCF       BYTE_COUNT
0025   2???           00122  GOTO       UART_RX_END             ;HandShake Verified Increment Byte Count and Exit
                      00123  
0026                  00124 BYTE_2  ;**Second Received Byte Check for Robot Address**
0026   0020           00125  BANKSEL    ROBOT_ADDR
0027   0821           00126  MOVFW      ROBOT_ADDR
0028   0023           00127  BANKSEL    RCREG
Message[302]: Register in operand not in bank 0.  Ensure that bank bits are correct.
0029   0219           00128  SUBWF      RCREG,0                 ;Subtract RCREG - ROBOT_ADDR; Result Store in W
002A   1903           00129  BTFSC      STATUS,2
002B   2???           00130  GOTO       ADDR_VERIFIED           ;Robot Address Confirmed Increment Byte Count
002C   0020           00131  BANKSEL    BYTE_COUNT
002D   01A0           00132  CLRF       BYTE_COUNT
002E   2???           00133  GOTO       UART_RX_END             ;Robot Address Not Verified. Clear Count and Exit
002F                  00134 ADDR_VERIFIED
MPASM 5.84               UNV_MASTER_MAIN.ASM   4-29-2026  14:26:15         PAGE 10


LOC  OBJECT CODE     LINE SOURCE TEXT
  VALUE

002F   0020           00135  BANKSEL    BYTE_COUNT
Message[305]: Using default destination of 1 (file).
0030   0AA0           00136  INCF       BYTE_COUNT
0031   0020           00137  BANKSEL    CONNECT_CHK_COUNT
0032   01AF           00138  CLRF       CONNECT_CHK_COUNT       ;Clear Connection Timeout Counter
0033   2???           00139  GOTO       UART_RX_END             ;Robot Address Verified Increment Byte Count and Exit
                      00140  
0034                  00141 BYTE_3  ;**Third Received Byte Save as Data Packet Command** 
0034   0023           00142  BANKSEL    RCREG
Message[302]: Register in operand not in bank 0.  Ensure that bank bits are correct.
0035   0819           00143  MOVFW      RCREG
0036   0020           00144  BANKSEL    CURRENT_DATA_PACK
0037   00AA           00145  MOVWF      CURRENT_DATA_PACK       ;Save Command Byte into Current Data Packet
0038   0020           00146  BANKSEL    BYTE_COUNT
Message[305]: Using default destination of 1 (file).
0039   0AA0           00147  INCF       BYTE_COUNT              ;Increment Byte Count
003A   2???           00148  GOTO       UART_RX_END             ;Exit Routine
                      00149  
003B                  00150 BYTE_4  ;**Fourth Received Byte Save as Memory Save 1**
003B   0023           00151  BANKSEL    RCREG
Message[302]: Register in operand not in bank 0.  Ensure that bank bits are correct.
003C   0819           00152  MOVFW      RCREG
003D   0020           00153  BANKSEL    MEM_SAVE_1
003E   00AB           00154  MOVWF      MEM_SAVE_1              ;Save Data Variable 1 into Memory Save 1
003F   0020           00155  BANKSEL    BYTE_COUNT
Message[305]: Using default destination of 1 (file).
0040   0AA0           00156  INCF       BYTE_COUNT              ;Increment Byte Count
0041   2???           00157  GOTO       UART_RX_END             ;Exit Routine
                      00158  
0042                  00159 BYTE_5  ;**Fifth Received Byte Save as Memory Save 2** 
0042   0023           00160  BANKSEL    RCREG
Message[302]: Register in operand not in bank 0.  Ensure that bank bits are correct.
0043   0819           00161  MOVFW      RCREG
0044   0020           00162  BANKSEL    MEM_SAVE_2
0045   00AC           00163  MOVWF      MEM_SAVE_2              ;Save Data Variable 2 into Memory Save 2
0046   0020           00164  BANKSEL    BYTE_COUNT
Message[305]: Using default destination of 1 (file).
0047   0AA0           00165  INCF       BYTE_COUNT              ;Increment Byte Count
0048   2???           00166  GOTO       UART_RX_END             ;Exit Routine
                      00167  
0049                  00168 BYTE_6  ;**Sixth Received Byte Save as Memory Save 3 and Set New Data Flag**
0049   0023           00169  BANKSEL    RCREG
Message[302]: Register in operand not in bank 0.  Ensure that bank bits are correct.
004A   0819           00170  MOVFW      RCREG
004B   0020           00171  BANKSEL    MEM_SAVE_3
004C   00AD           00172  MOVWF      MEM_SAVE_3              ;Save Data Variable 3 into Memory Save 3
004D   0020           00173  BANKSEL    NEW_RX_DATA
004E   142E           00174  BSF        NEW_RX_DATA,0           ;Set New Data Flag to Initiate URC Decoding
004F   0020           00175  BANKSEL    BYTE_COUNT
0050   01A0           00176  CLRF       BYTE_COUNT              ;Clear Byte Count for Next Data Packet
                      00177  
0051                  00178 UART_RX_END
0051   0008           00179  RETURN
MPASM 5.84               UNV_MASTER_MAIN.ASM   4-29-2026  14:26:15         PAGE 11


LOC  OBJECT CODE     LINE SOURCE TEXT
  VALUE

                      00180 
                      00181  
                      00182 ;********************************************************************************************
                      00183 ;****DECODE_URC Function Will Determine The Data Saved in Temporary "MEM_SAVE" Registers. ***
                      00184 ;**** This is Based on the 3rd Data Byte UART Received Known as "CURRENT_DATA_PACK"       ***
                      00185 ;**** See Data Pack Layout Above and Additional Materials for URC                         ***
                      00186 ;********************************************************************************************
0052                  00187 DECODE_URC ;***Decode Memory Save 1-3 From Command Byte***
0052   0020           00188  BANKSEL    CURRENT_DATA_PACK
0053   304A           00189  MOVLW      H'4A'                   ;ASCII "J"
0054   022A           00190  SUBWF      CURRENT_DATA_PACK,0     ;Subtract CURRENT_DATA_PACK - W; Result Store in W
0055   1903           00191  BTFSC      STATUS,2                ;Check Zero Bit.  1 if Zero; 0 if not Zero
0056   2???           00192  GOTO       JOYSTICK_DATA_1         ;Data is Joystick Data 1 Packet
                      00193  
0057   306A           00194  MOVLW      H'6A'                   ;ASCII "j"
0058   022A           00195  SUBWF      CURRENT_DATA_PACK,0     ;Subtract CURRENT_DATA_PACK - W; Result Store in W
0059   1903           00196  BTFSC      STATUS,2                ;Check Zero Bit.  1 if Zero; 0 if not Zero
005A   2???           00197  GOTO       JOYSTICK_DATA_2         ;Data is Joystick Data 2 Packet
                      00198  
005B   3042           00199  MOVLW      H'42'
005C   022A           00200  SUBWF      CURRENT_DATA_PACK,0     ;Subtract CURRENT_DATA_PACK - W; Result Store in W
005D   1903           00201  BTFSC      STATUS,2                ;Check Zero Bit.  1 if Zero; 0 if not Zero
005E   2???           00202  GOTO       BUTTON_DATA             ;Data is Button Data Packet
005F   2???           00203  GOTO       DECODE_URC_END          ;Data Pack Unkown Exit Routine (Should Not Happen)
                      00204  
0060                  00205 JOYSTICK_DATA_1
0060   0020           00206  BANKSEL    MEM_SAVE_1
0061   082B           00207  MOVFW      MEM_SAVE_1
0062   0020           00208  BANKSEL    JOY1_UD
0063   00A2           00209  MOVWF      JOY1_UD                 ;First Data Variable is Joystick 1 Up and Down
                      00210  
0064   0020           00211  BANKSEL    MEM_SAVE_2
0065   082C           00212  MOVFW      MEM_SAVE_2
0066   0020           00213  BANKSEL    JOY1_LR
0067   00A3           00214  MOVWF      JOY1_LR                 ;Second Data Variable is Joystick 1 Left and Right
                      00215  
0068   0020           00216  BANKSEL    MEM_SAVE_3
0069   082D           00217  MOVFW      MEM_SAVE_3
006A   0020           00218  BANKSEL    JOY2_UD
006B   00A4           00219  MOVWF      JOY2_UD                 ;Third Data Variable is Joystick 2 Up and Down
                      00220  
006C   2???           00221  GOTO       DECODE_URC_END          ;Exit Routine
                      00222  
006D                  00223 JOYSTICK_DATA_2
006D   0020           00224  BANKSEL    MEM_SAVE_1
006E   082B           00225  MOVFW      MEM_SAVE_1
006F   0020           00226  BANKSEL    JOY2_LR
0070   00A5           00227  MOVWF      JOY2_LR                 ;First Data Variable is Joystick 2 Left and Right
                      00228  
0071   0020           00229  BANKSEL    MEM_SAVE_2
0072   082C           00230  MOVFW      MEM_SAVE_2
0073   0020           00231  BANKSEL    JOY3_UD
0074   00A6           00232  MOVWF      JOY3_UD                 ;Second Data Variable is Joystick 3 Up and Down
MPASM 5.84               UNV_MASTER_MAIN.ASM   4-29-2026  14:26:15         PAGE 12


LOC  OBJECT CODE     LINE SOURCE TEXT
  VALUE

                      00233  
0075   0020           00234  BANKSEL    MEM_SAVE_3
0076   082D           00235  MOVFW      MEM_SAVE_3
0077   0020           00236  BANKSEL    JOY3_LR
0078   00A7           00237  MOVWF      JOY3_LR                 ;Third Data Variable is Joystick 3 Left and Right
                      00238  
0079   2???           00239  GOTO       DECODE_URC_END          ;Exit Routine
                      00240  
007A                  00241 BUTTON_DATA
007A   0020           00242  BANKSEL    MEM_SAVE_1
007B   082B           00243  MOVFW      MEM_SAVE_1
007C   0020           00244  BANKSEL    BUTTON_STATUS_1
007D   00A8           00245  MOVWF      BUTTON_STATUS_1         ;First Data Variable is Controller Button Status
007E   0020           00246  BANKSEL    MEM_SAVE_2
007F   082C           00247  MOVFW      MEM_SAVE_2
0080   0020           00248  BANKSEL    BUTTON_STATUS_2
0081   00A9           00249  MOVWF      BUTTON_STATUS_2         ;Second Data Variable is Last Controller Button Status (bit 0)
                      00250                                     ;Third Data Variable is not used in the button data packet
                      00251                                    
0082                  00252 DECODE_URC_END
0082   01AA           00253  CLRF       CURRENT_DATA_PACK
0083   01AB           00254  CLRF       MEM_SAVE_1
0084   01AC           00255  CLRF       MEM_SAVE_2
0085   01AD           00256  CLRF       MEM_SAVE_3              ;Data is Saved Clear Temp Save Registers
0086   102E           00257  BCF        NEW_RX_DATA,0           ;Remove New Data Flag
                      00258  
0087   0008           00259  RETURN
                      00260  
                      00261         
                      00262  
                      00263  
                      00264  
                      00032 #INCLUDE <Unv_Master_I2C_SetUp.inc>             ;I2C Set Up and Read/Write Routines
                      00001  ;****************************************************************************
                      00002 ;                                                                           *
                      00003 ;           File Name: Unv_Master_I2C_SetUp.INC                             *
                      00004 ;           Date:   3/3/25                                                  *
                      00005 ;           File Version: 1                                                 *
                      00006 ;           Author:    Zac Christensen                                      *
                      00007 ;           Company:   Idaho State University; RCET                         *
                      00008 ;           Description:  I2C COM SetUp and functions for Universal         *
                      00009 ;                           Control System Master Board.                    *
                      00010 ;                                                                           *
                      00011 ;****************************************************************************
                      00012     ;Before an I2C_WRITE call Main Code Should:
                      00013     ;1. Load ADDRESS_W(R) Registers for Peripheral (Read and Write Registers)
                      00014     ;2. Load DATA_TX_1 Register with First Byte Data
                      00015     ;3. Load DATA_TX_2 Register with Second Byte Data
                      00016     ;4. Load DATA_TX_3 Register with Third Byte Data
                      00017     ;5. Load DATA_TX_4 Register with Fourth Byte Data
                      00018     ;6. Call I2C_WRITE
                      00019     
                      00020     ;Before an I2C_READ call Main Code Should:
MPASM 5.84               UNV_MASTER_MAIN.ASM   4-29-2026  14:26:15         PAGE 13


LOC  OBJECT CODE     LINE SOURCE TEXT
  VALUE

                      00021     ;1. Load ADDRESS_W(R) Registers for Peripheral (Read and Write Registers)
                      00022     ;2. Load DATA_TX_1 Register with the Desired Address To be Read
                      00023     ;3. Call I2C_READ
                      00024     ;4. Save DATA_RECEIVED to Desired Register
                      00025     
                      00026     ;***************************************************************************************
                      00027     ;****               Memory Save Locations Specifically for I2C COM                   ***
                      00028     ;***************************************************************************************
  00000040            00029 ADDRESS_W                       EQU     H'040'
  00000041            00030 ADDRESS_R                       EQU     H'041'
  00000042            00031 DATA_TX_1                       EQU     H'042'
  00000043            00032 DATA_TX_2                       EQU     H'043'
  00000044            00033 DATA_TX_3                       EQU     H'044'
  00000045            00034 DATA_TX_4                       EQU     H'045'
  00000046            00035 DATA_RECEIVED                   EQU     H'046'
                      00036     
                      00037    
  00000047            00038 DRIVE_CONTROL_W                 EQU     H'047'
  00000048            00039 DRIVE_CONTROL_R                 EQU     H'048'
  00000049            00040 PERIPHERAL_CONTROL_W            EQU     H'049'
  0000004A            00041 PERIPHERAL_CONTROL_R            EQU     H'04A'
                      00042     ;***************************************************************************************
                      00043     ;****Enable and Rename For additional Slave Board Address Saving
                      00044     ;***************************************************************************************
                      00045     ;AUDIO_CONTROL_W            EQU     H'04B'
                      00046     ;AUDIO_CONTROL_R            EQU     H'04C'
                      00047     
                      00048 I2C_CODE    CODE
                      00049     
0000                  00050 I2C_SETUP_MASTER
                      00051     ;***************************************************************************************
                      00052     ;****                   Set Up Slave Board Addresses                                 ***
                      00053     ;***************************************************************************************
0000   0020           00054         BANKSEL     DRIVE_CONTROL_W
0001   3010           00055         MOVLW       H'10'               
0002   00C7           00056         MOVWF       DRIVE_CONTROL_W     ;Save Drive Control Daugher Board Write Address
0003   0020           00057         BANKSEL     DRIVE_CONTROL_R
0004   3011           00058         MOVLW       H'11'
0005   00C8           00059         MOVWF       DRIVE_CONTROL_R     ;Save Drive Control Daugher Board Read Address
0006   0020           00060         BANKSEL     PERIPHERAL_CONTROL_W
0007   3020           00061         MOVLW       H'20'
0008   00C9           00062         MOVWF       PERIPHERAL_CONTROL_W ;Save Peripheral Control Daugher Board Write Address
0009   0020           00063         BANKSEL     PERIPHERAL_CONTROL_R
000A   3021           00064         MOVLW       H'21'
000B   00CA           00065         MOVWF       PERIPHERAL_CONTROL_R ;Save Peripheral Control Daugher Board Read Address
                      00066         
                      00067     ;***************************************************************************************
                      00068     ;****               Enable and Set Additional Slave Board Addresses                  ***
                      00069     ;***************************************************************************************
                      00070         ;BANKSEL    AUDIO_CONTROL_W
                      00071         ;MOVLW      H'__'
                      00072         ;MOVWF      AUDIO_CONTROL_W
                      00073         ;BANKSEL    AUDIO_CONTROL_R
MPASM 5.84               UNV_MASTER_MAIN.ASM   4-29-2026  14:26:15         PAGE 14


LOC  OBJECT CODE     LINE SOURCE TEXT
  VALUE

                      00074         ;MOVLW      H'__'
                      00075         ;MOVWF      AUDIO_CONTROL_R
                      00076         
                      00077     ;***************************************************************************************************
                            ***
                      00078     ;****                           Set Up Pic for I2C Master COM                                       
                            ***
                      00079     ;***************************************************************************************************
                            ***
000C   0021           00080         BANKSEL     TRISC
Message[302]: Register in operand not in bank 0.  Ensure that bank bits are correct.
000D   158E           00081         BSF         TRISC,3
Message[302]: Register in operand not in bank 0.  Ensure that bank bits are correct.
000E   160E           00082         BSF         TRISC,4             ;Set SCL and SDA as inputs
000F   0024           00083         BANKSEL     SSP1ADD
0010   3027           00084         MOVLW       H'27'
Message[302]: Register in operand not in bank 0.  Ensure that bank bits are correct.
0011   0092           00085         MOVWF       SSP1ADD             ;Set BAUD Generator to 100Khz (16M Occilator)
0012   0024           00086         BANKSEL     SSP1CON1
0013   3028           00087         MOVLW       H'28'               
Message[302]: Register in operand not in bank 0.  Ensure that bank bits are correct.
0014   0095           00088         MOVWF       SSP1CON1            ;Enable SDA and SLC Pins and Set as I2C Master Mode
0015   0024           00089         BANKSEL     SSP1CON2
0016   3000           00090         MOVLW       H'00'
Message[302]: Register in operand not in bank 0.  Ensure that bank bits are correct.
0017   0096           00091         MOVWF       SSP1CON2            ;Disable General Call
0018   0024           00092         BANKSEL     SSP1CON3
0019   3008           00093         MOVLW       H'08'               ;Min SDA Hold time 300ns
Message[302]: Register in operand not in bank 0.  Ensure that bank bits are correct.
001A   0097           00094         MOVWF       SSP1CON3
001B   0024           00095         BANKSEL     SSP1STAT
001C   30A0           00096         MOVLW       H'A0'               
Message[302]: Register in operand not in bank 0.  Ensure that bank bits are correct.
001D   0094           00097         MOVWF       SSP1STAT            ;Not in Tx mode, Slew Rate Control Disabled
001E   0008           00098         RETURN
                      00099         
                      00100 ;******************************************************************************************************
                      00101 ;****I2C_WRITE Function is Used to Send 4 Bytes to the Addressed slave.  See Above for Instructions ***
                      00102 ;******************************************************************************************************
001F                  00103 I2C_WRITE
001F   2???           00104         CALL        I2C_IDLE            ;Ensure the I2C BUS is idle
0020   0024           00105         BANKSEL     SSP1CON2
Message[302]: Register in operand not in bank 0.  Ensure that bank bits are correct.
0021   1416           00106         BSF         SSP1CON2,0          ;Generate Start Condition
0022                  00107 START_WRITE_DONE
Message[302]: Register in operand not in bank 0.  Ensure that bank bits are correct.
0022   1816           00108         BTFSC       SSP1CON2,0
0023   2???           00109         GOTO        START_WRITE_DONE    ;Wait Until Start Condition Completes
0024   0020           00110         BANKSEL     ADDRESS_W
0025   0840           00111         MOVFW       ADDRESS_W
0026   0024           00112         BANKSEL     SSP1BUF
Message[302]: Register in operand not in bank 0.  Ensure that bank bits are correct.
0027   0091           00113         MOVWF       SSP1BUF             ;Send Peripheral Address (Write)
MPASM 5.84               UNV_MASTER_MAIN.ASM   4-29-2026  14:26:15         PAGE 15


LOC  OBJECT CODE     LINE SOURCE TEXT
  VALUE

0028                  00114 ADDRESS_SENT_W
0028   0024           00115         BANKSEL     SSP1STAT
Message[302]: Register in operand not in bank 0.  Ensure that bank bits are correct.
0029   1814           00116         BTFSC       SSP1STAT,0          
002A   2???           00117         GOTO        ADDRESS_SENT_W      ;Wait Until Buffer is Clear (Address is Sent)
002B   2???           00118         CALL        I2C_IDLE            ;Ensure the I2C BUS is idle
002C   0024           00119         BANKSEL     SSP1CON2
Message[302]: Register in operand not in bank 0.  Ensure that bank bits are correct.
002D   1B16           00120         BTFSC       SSP1CON2,6          ;Was an Acknowledge Received?
002E   2???           00121         GOTO        BAD_COND            ;Acknowledge Not Received
002F   0020           00122         BANKSEL     DATA_TX_1
0030   0842           00123         MOVFW       DATA_TX_1
0031   0024           00124         BANKSEL     SSP1BUF
Message[302]: Register in operand not in bank 0.  Ensure that bank bits are correct.
0032   0091           00125         MOVWF       SSP1BUF             ;Send First Data Byte
0033                  00126 DATA_1_SENT
0033   0024           00127         BANKSEL     SSP1STAT
Message[302]: Register in operand not in bank 0.  Ensure that bank bits are correct.
0034   1814           00128         BTFSC       SSP1STAT,0
0035   2???           00129         GOTO        DATA_1_SENT         ;Wait Until Buffer is Clear (Data is Sent)
0036   2???           00130         CALL        I2C_IDLE            ;Ensure the I2C BUS is idle
0037   0024           00131         BANKSEL     SSP1CON2
Message[302]: Register in operand not in bank 0.  Ensure that bank bits are correct.
0038   1B16           00132         BTFSC       SSP1CON2,6          ;Was an Acknowledge Received?
0039   2???           00133         GOTO        BAD_COND            ;Acknowledge Not Received
003A   0020           00134         BANKSEL     DATA_TX_2
003B   0843           00135         MOVFW       DATA_TX_2
003C   0024           00136         BANKSEL     SSP1BUF
Message[302]: Register in operand not in bank 0.  Ensure that bank bits are correct.
003D   0091           00137         MOVWF       SSP1BUF             ;Send Second Data Byte
003E                  00138 DATA_2_SENT
003E   0024           00139         BANKSEL     SSP1STAT
Message[302]: Register in operand not in bank 0.  Ensure that bank bits are correct.
003F   1814           00140         BTFSC       SSP1STAT,0
0040   2???           00141         GOTO        DATA_2_SENT         ;Wait Unitl Buffer is Clear (Data is Sent)
0041   2???           00142         CALL        I2C_IDLE            ;Ensure the I2C BUS is idle
0042   0024           00143         BANKSEL     SSP1CON2
Message[302]: Register in operand not in bank 0.  Ensure that bank bits are correct.
0043   1B16           00144         BTFSC       SSP1CON2,6          ;Was an Acknowledge Received?
0044   2???           00145         GOTO        BAD_COND            ;Acknowledge not Received
0045   0020           00146         BANKSEL     DATA_TX_3
0046   0844           00147         MOVFW       DATA_TX_3
0047   0024           00148         BANKSEL     SSP1BUF
Message[302]: Register in operand not in bank 0.  Ensure that bank bits are correct.
0048   0091           00149         MOVWF       SSP1BUF             ;Send Third Data Byte
0049                  00150 DATA_3_SENT
0049   0024           00151         BANKSEL     SSP1STAT
Message[302]: Register in operand not in bank 0.  Ensure that bank bits are correct.
004A   1814           00152         BTFSC       SSP1STAT,0
004B   2???           00153         GOTO        DATA_3_SENT         ;Wait Until Buffer is Clear (Data is Sent)
004C   2???           00154         CALL        I2C_IDLE            ;Ensure the I2C BUS is idle
004D   0024           00155         BANKSEL     SSP1CON2
Message[302]: Register in operand not in bank 0.  Ensure that bank bits are correct.
MPASM 5.84               UNV_MASTER_MAIN.ASM   4-29-2026  14:26:15         PAGE 16


LOC  OBJECT CODE     LINE SOURCE TEXT
  VALUE

004E   1B16           00156         BTFSC       SSP1CON2,6          ;Was an Acknowledge Received?
004F   2???           00157         GOTO        BAD_COND            ;Acknowledge Not Received
0050   0020           00158         BANKSEL     DATA_TX_4
0051   0845           00159         MOVFW       DATA_TX_4
0052   0024           00160         BANKSEL     SSP1BUF
Message[302]: Register in operand not in bank 0.  Ensure that bank bits are correct.
0053   0091           00161         MOVWF       SSP1BUF             ;Send Fourth Data Byte
0054                  00162 DATA_4_SENT
0054   0024           00163         BANKSEL     SSP1STAT
Message[302]: Register in operand not in bank 0.  Ensure that bank bits are correct.
0055   1814           00164         BTFSC       SSP1STAT,0
0056   2???           00165         GOTO        DATA_4_SENT         ;Wait Until Buffer is Clear (Data is Sent)
0057   2???           00166         CALL        I2C_IDLE            ;Ensure the I2C BUS is idle
0058   0024           00167         BANKSEL     SSP1CON2
Message[302]: Register in operand not in bank 0.  Ensure that bank bits are correct.
0059   1B16           00168         BTFSC       SSP1CON2,6          ;Was an Acknowledge Received?
005A   2???           00169         GOTO        BAD_COND            ;Acknowledge Not Received
005B                  00170 GOOD_STOP
005B   0024           00171         BANKSEL     SSP1CON2
Message[302]: Register in operand not in bank 0.  Ensure that bank bits are correct.
005C   1516           00172         BSF         SSP1CON2,2          ;Generate a Stop Condition
005D                  00173 GOOD_STOP_DONE
Message[302]: Register in operand not in bank 0.  Ensure that bank bits are correct.
005D   1916           00174         BTFSC       SSP1CON2,2
005E   2???           00175         GOTO        GOOD_STOP_DONE      ;Wait Until Stop Condition Completes
005F   3000           00176         MOVLW       H'00'
0060   0008           00177         RETURN                          ;Write Complete.  Return With 0x00 in Working Register
                      00178         
                      00179 ;*******************************************************************************************************
                            ***********
                      00180 ;****I2C_READ Function is Meant to Retreive Data From Slave. See Above for Instructions                 
                                    ***
                      00181 ;****NOTE: The Project This Template was Designed alongside did Not Read From Slave.  THIS FUNCTION IS U
                            NTESTED ***
                      00182 ;*******************************************************************************************************
                            ***********
0061                  00183 I2C_READ
0061   2???           00184         CALL        I2C_IDLE            ;Ensure the I2C BUS is idle
0062   0024           00185         BANKSEL     SSP1CON2
Message[302]: Register in operand not in bank 0.  Ensure that bank bits are correct.
0063   1416           00186         BSF         SSP1CON2,0          ;Generate Start Condition
0064                  00187 START_READ_DONE_1
Message[302]: Register in operand not in bank 0.  Ensure that bank bits are correct.
0064   1816           00188         BTFSC       SSP1CON2,0
0065   2???           00189         GOTO        START_READ_DONE_1   ;Wait Until Start Condition Completes
0066   0020           00190         BANKSEL     ADDRESS_W
0067   0840           00191         MOVFW       ADDRESS_W
0068   0024           00192         BANKSEL     SSP1BUF
Message[302]: Register in operand not in bank 0.  Ensure that bank bits are correct.
0069   0091           00193         MOVWF       SSP1BUF             ;Send Peripheral Address (Write)
006A                  00194 ADDRESS_SENT_R_1
006A   0024           00195         BANKSEL     SSP1STAT
Message[302]: Register in operand not in bank 0.  Ensure that bank bits are correct.
MPASM 5.84               UNV_MASTER_MAIN.ASM   4-29-2026  14:26:15         PAGE 17


LOC  OBJECT CODE     LINE SOURCE TEXT
  VALUE

006B   1814           00196         BTFSC       SSP1STAT,0          
006C   2???           00197         GOTO        ADDRESS_SENT_R_1    ;Wait Until Buffer is Clear (Address is Sent)
006D   2???           00198         CALL        I2C_IDLE            ;Ensure the I2C BUS is idle
006E   0024           00199         BANKSEL     SSP1CON2
Message[302]: Register in operand not in bank 0.  Ensure that bank bits are correct.
006F   1B16           00200         BTFSC       SSP1CON2,6          ;Was an Acknowledge Received?
0070   2???           00201         GOTO        BAD_COND            ;Acknowledge Not Received
0071   0020           00202         BANKSEL     PIR1
0072   1191           00203         BCF         PIR1,3              ;Clear SSP interrupt Flag
0073   0020           00204         BANKSEL     DATA_TX_1
0074   0842           00205         MOVFW       DATA_TX_1
0075   0024           00206         BANKSEL     SSP1BUF
Message[302]: Register in operand not in bank 0.  Ensure that bank bits are correct.
0076   0091           00207         MOVWF       SSP1BUF             ;Send First Data Byte
0077                  00208 DATA_1_SENT_R
0077   0024           00209         BANKSEL     SSP1STAT
Message[302]: Register in operand not in bank 0.  Ensure that bank bits are correct.
0078   1814           00210         BTFSC       SSP1STAT,0
0079   2???           00211         GOTO        DATA_1_SENT_R       ;Wait Until Buffer is Clear (Data is Sent)
007A   2???           00212         CALL        I2C_IDLE            ;Ensure the I2C BUS is idle
007B   0024           00213         BANKSEL     SSP1CON2
Message[302]: Register in operand not in bank 0.  Ensure that bank bits are correct.
007C   1B16           00214         BTFSC       SSP1CON2,6          ;Was an Acknowledge Received?
007D   2???           00215         GOTO        BAD_COND            ;Acknowledge Not Received
007E   2???           00216         CALL        I2C_IDLE            ;Ensure the I2C BUS is idle
007F   0024           00217         BANKSEL     SSP1CON2
Message[302]: Register in operand not in bank 0.  Ensure that bank bits are correct.
0080   1416           00218         BSF         SSP1CON2,0          ;Generate Repeated Start Condition
0081                  00219 START_READ_DONE_2
Message[302]: Register in operand not in bank 0.  Ensure that bank bits are correct.
0081   1816           00220         BTFSC       SSP1CON2,0
0082   2???           00221         GOTO        START_READ_DONE_2   ;Wait Until Repeated Start Condition Completes
0083   0020           00222         BANKSEL     PIR1
0084   1191           00223         BCF         PIR1,3              ;Clear SSP interrupt Flag
0085   0020           00224         BANKSEL     ADDRESS_R
0086   0841           00225         MOVFW       ADDRESS_R
0087   0024           00226         BANKSEL     SSP1BUF
Message[302]: Register in operand not in bank 0.  Ensure that bank bits are correct.
0088   0091           00227         MOVWF       SSP1BUF             ;Send Peripheral Address (Read)
0089                  00228 ADDRESS_SENT_R_2
0089   0024           00229         BANKSEL     SSP1STAT
Message[302]: Register in operand not in bank 0.  Ensure that bank bits are correct.
008A   1814           00230         BTFSC       SSP1STAT,0          
008B   2???           00231         GOTO        ADDRESS_SENT_R_2    ;Wait Until Buffer is Clear (Address is Sent)
008C   2???           00232         CALL        I2C_IDLE            ;Ensure the I2C BUS is idle
008D   0024           00233         BANKSEL     SSP1CON2
Message[302]: Register in operand not in bank 0.  Ensure that bank bits are correct.
008E   1B16           00234         BTFSC       SSP1CON2,6          ;Was an Acknowledge Received?
008F   2???           00235         GOTO        BAD_COND            ;Acknowledge Not Received
0090   0024           00236         BANKSEL     SSP1CON2
Message[302]: Register in operand not in bank 0.  Ensure that bank bits are correct.
0091   1596           00237         BSF         SSP1CON2,3          ;Enable Receive Mode
0092   0020           00238         BANKSEL     PIR1
MPASM 5.84               UNV_MASTER_MAIN.ASM   4-29-2026  14:26:15         PAGE 18


LOC  OBJECT CODE     LINE SOURCE TEXT
  VALUE

0093   1191           00239         BCF         PIR1,3              ;Clear SSP interrupt Flag
0094   0024           00240         BANKSEL     SSP1BUF
Message[302]: Register in operand not in bank 0.  Ensure that bank bits are correct.
0095   0811           00241         MOVFW       SSP1BUF             ;Clear SSP1BUF Buffer
0096   2???           00242         CALL        I2C_IDLE            ;Ensure the I2C BUS is idle
0097   0024           00243         BANKSEL     SSP1CON2
Message[302]: Register in operand not in bank 0.  Ensure that bank bits are correct.
0098   1696           00244         BSF         SSP1CON2,5          ;Set Acknowledge Data to NACK
Message[302]: Register in operand not in bank 0.  Ensure that bank bits are correct.
0099   1616           00245         BSF         SSP1CON2,4          ;Send NACK (Stop Data Receive)
009A                  00246 NACK_DONE
Message[302]: Register in operand not in bank 0.  Ensure that bank bits are correct.
009A   1A16           00247         BTFSC       SSP1CON2,4
009B   2???           00248         GOTO        NACK_DONE           ;Wait Until NACK Completes
009C   0024           00249         BANKSEL     SSP1CON2
Message[302]: Register in operand not in bank 0.  Ensure that bank bits are correct.
009D   1196           00250         BCF         SSP1CON2,3          ;Disable Receive Mode
009E   0024           00251         BANKSEL     SSP1CON2
Message[302]: Register in operand not in bank 0.  Ensure that bank bits are correct.
009F   1516           00252         BSF         SSP1CON2,2          ;Generate Stop Condition
00A0                  00253 READ_STOP_DONE_2
Message[302]: Register in operand not in bank 0.  Ensure that bank bits are correct.
00A0   1916           00254         BTFSC       SSP1CON2,2
00A1   2???           00255         GOTO        READ_STOP_DONE_2    ;Wait Until Stop Condition Completes
00A2   0024           00256         BANKSEL     SSP1BUF
Message[302]: Register in operand not in bank 0.  Ensure that bank bits are correct.
00A3   0811           00257         MOVFW       SSP1BUF
00A4   0020           00258         BANKSEL     DATA_RECEIVED
00A5   00C6           00259         MOVWF       DATA_RECEIVED       ;Save Data Sent By the Peripheral
00A6   0008           00260         RETURN
                      00261         
                      00262 ;******************************************************************************************************
                      00263 ;****BAD_COND Function is GOTO'd When a Slave Does not ACK.  Will Exit Current Routine              ***
                      00264 ;******************************************************************************************************
00A7                  00265 BAD_COND
00A7   0024           00266         BANKSEL     SSP1CON2
Message[302]: Register in operand not in bank 0.  Ensure that bank bits are correct.
00A8   1516           00267         BSF         SSP1CON2,2          ;Generate Stop Condition
00A9                  00268 BAD_STOP_DONE
Message[302]: Register in operand not in bank 0.  Ensure that bank bits are correct.
00A9   1916           00269         BTFSC       SSP1CON2,2
00AA   2???           00270         GOTO        BAD_STOP_DONE       ;Wait Until Stop Condition Completes
00AB   30FF           00271         MOVLW       H'FF'
00AC   0008           00272         RETURN                          ;Write/Read Failed.  Return With 0xFF in Working Register
                      00273         
                      00274 ;*******************************************************************************************************
                            *****
                      00275 ;****I2C_Idle Function is Used to Ensure I2C Line is Not Busy.  Will Return to Function When Line is Idl
                            e ***
                      00276 ;*******************************************************************************************************
                            *****
00AD                  00277 I2C_IDLE
00AD   0024           00278         BANKSEL     SSP1CON2
MPASM 5.84               UNV_MASTER_MAIN.ASM   4-29-2026  14:26:15         PAGE 19


LOC  OBJECT CODE     LINE SOURCE TEXT
  VALUE

00AE   301F           00279         MOVLW       H'1F'
Message[305]: Using default destination of 1 (file).
Message[302]: Register in operand not in bank 0.  Ensure that bank bits are correct.
00AF   0596           00280         ANDWF       SSP1CON2            ;Compare to 0x1F to Test for 5 Busy Conditions
00B0   0020           00281         BANKSEL     STATUS
00B1   1D03           00282         BTFSS       STATUS,2
00B2   2???           00283         GOTO        I2C_IDLE            ;If any Conditions Still Busy Wait
00B3                  00284 CHECK_R_W
00B3   0024           00285         BANKSEL    SSP1STAT
Message[302]: Register in operand not in bank 0.  Ensure that bank bits are correct.
00B4   1914           00286         BTFSC      SSP1STAT,2
00B5   2???           00287         GOTO       CHECK_R_W            ;Wait Until  a Transmission is Not in Process
00B6   0008           00288         RETURN                          ;I2C BUS is Idle Exit Routine
                      00289         
                      00290         
                      00291         
                      00292         
                      00293         
                      00033 ;LIST    P=16f1788                              ;list directive to define processor
                      00034 ;errorlevel -302,-207,-305,-206,-203            ;suppress "not in bank 0" message,  Found label after co
                            lumn 1,
                      00035     
                      00036 ;******************************************    
                      00037 ;Configuration
                      00038 ;******************************************
                      00039     
                      00040 ; CONFIG1
                      00041 ; __config 0xC9E4
8007   09E4           00042  __CONFIG _CONFIG1, _FOSC_INTOSC & _WDTE_OFF & _PWRTE_OFF & _MCLRE_ON & _CP_OFF & _CPD_OFF & _BOREN_OFF 
                            & _CLKOUTEN_OFF & _IESO_OFF & _FCMEN_OFF
                      00043 ; CONFIG2
                      00044 ; __config 0xDFFF
8008   1EFF           00045  __CONFIG _CONFIG2, _WRT_OFF & _VCAPEN_OFF & _PLLEN_OFF & _STVREN_ON & _BORV_LO & _LPBOR_OFF & _LVP_OFF
                      00046 
                      00047 ;******************************************             
                      00048 ;Interrupt Vectors
                      00049 ;******************************************
                      00050     ORG H'00'                                   
0000   2???           00051     GOTO SETUP                          ;RESET CONDITION GOTO SETUP
                      00052     ORG H'04'
0004   2???           00053     GOTO INTERRUPT                      ;Interrupt occur GOTO INTERRUPT
                      00054     
                      00055 ;******************************************
                      00056 ;Setup Routine
                      00057 ;******************************************
0005                  00058 SETUP
0005   2???           00059     CALL        INITIALIZE              ;Set Up SFR and GPR For PIC Microcontroller
0006   2???           00060     CALL        I2C_SETUP_MASTER        ;Set Up PIC for I2C as Master
                      00061     
0007   0023           00062     BANKSEL     RCSTA
Message[302]: Register in operand not in bank 0.  Ensure that bank bits are correct.
0008   161D           00063     BSF         RCSTA,4                 ;Enable Continous Receive UART
                      00064     
MPASM 5.84               UNV_MASTER_MAIN.ASM   4-29-2026  14:26:15         PAGE 20


LOC  OBJECT CODE     LINE SOURCE TEXT
  VALUE

0009   0020           00065     BANKSEL     T2CON
000A   151C           00066     BSF         T2CON,2                 ;Enable Timer 2
                      00067     
000B   0020           00068     BANKSEL     INTCON
000C   178B           00069     BSF         INTCON,7                ;Enable Global Interrupts
                      00070     
000D   2???           00071     GOTO        MAIN
                      00072     
                      00073 ;******************************************
                      00074 ;Interrupt Service Routine
                      00075 ;******************************************
000E                  00076 INTERRUPT
                      00077 
000E   0020           00078       BANKSEL   PIR1
000F   1A91           00079       BTFSC     PIR1,5
0010   2???           00080       CALL      UART_RX                 ;Check if RX interrupt and Run RX Save Routine if Yes
                      00081       
0011   0020           00082       BANKSEL   PIR1
0012   1891           00083       BTFSC     PIR1,1
0013   2???           00084       CALL      TMR2_INTERRUPT          ;Check for Timer 2 Interrupt.  
                      00085       
0014   0020           00086       BANKSEL   PIR1
0015   1291           00087       BCF       PIR1,5
0016   1091           00088       BCF       PIR1,1                  ;Clear Interrupt Flags
0017   0009           00089     RETFIE
                      00090     
                      00091 ;******************************************
                      00092 ;Sub Routines
                      00093 ;******************************************
                      00094     
                      00095 ;***************************************************************************************
                      00096 ;*** TMR2_INTERRUPT Does two things. 1. Tracks how long since last UART recieve      ***
                      00097 ;*** And 2. Delays I2C COM to send packets every 96mS                                ***
                      00098 ;***************************************************************************************
0018                  00099 TMR2_INTERRUPT
                      00100     
                      00101     ;***************************************************************************************
                      00102     ;**** CONNECT_CHK_COUNT is incremented and if it surpasses 15 a UART COM Timeout is  ***
                      00103     ;**** Identified.  This should result in a timeout of no UART RX in 0.5s             ***
                      00104     ;***************************************************************************************
0018   0020           00105     BANKSEL     CONNECT_CHK_COUNT
Message[305]: Using default destination of 1 (file).
0019   0AAF           00106     INCF        CONNECT_CHK_COUNT
001A   3010           00107     MOVLW       D'16'                   ;32mS * 16 = 0.522S Before Connection Error
001B   022F           00108     SUBWF       CONNECT_CHK_COUNT,0
001C   0020           00109     BANKSEL     STATUS
001D   1903           00110     BTFSC       STATUS,2
001E   2???           00111     GOTO        CONNECT_TIMEOUT         ;Connection Time out Occured (no UART RX in 0.5s)
                      00112     
                      00113     ;***************************************************************************************
                      00114     ;**** I2C_COM_DELAY is incremented until it surpases a count of 3.  When the count   ***
                      00115     ;**** reaches 3 the Flag to Decode UART Data is Set.  This should result in I2C Data ***
                      00116     ;**** transmitted every 96mS                                                         ***
MPASM 5.84               UNV_MASTER_MAIN.ASM   4-29-2026  14:26:15         PAGE 21


LOC  OBJECT CODE     LINE SOURCE TEXT
  VALUE

                      00117     ;***************************************************************************************
001F   0020           00118     BANKSEL     I2C_COM_DELAY
Message[305]: Using default destination of 1 (file).
0020   0AB0           00119     INCF        I2C_COM_DELAY
0021   3003           00120     MOVLW       D'3'                    ;32mS * 3 = 96mS Per I2C COM Send
0022   0230           00121     SUBWF       I2C_COM_DELAY,0
0023   0020           00122     BANKSEL     STATUS
0024   1903           00123     BTFSC       STATUS,2
0025   2???           00124     GOTO        UPDATE_I2C              ;96mS Passed Clear Count and Upate Flag
0026   2???           00125     GOTO        TMR2_INTERRUPT_END      ;Timeout has not occured Exit Routine
                      00126     
                      00127     ;***************************************************************************************
                      00128     ;****UPDATE_I2C occurs when 96mS has Passed.  This will reset the delay count and    ***
                      00129     ;**** Set the flag to signal an I2C Send routine in Main Loop                        ***
                      00130     ;***************************************************************************************
0027                  00131 UPDATE_I2C
0027   0020           00132     BANKSEL     I2C_COM_DELAY
0028   01B0           00133     CLRF        I2C_COM_DELAY           ;Clear I2C Com Delay Count
0029   0020           00134     BANKSEL     NEW_RX_DATA
002A   14AE           00135     BSF         NEW_RX_DATA,1           ;Set Update I2C Flag
002B   2???           00136     GOTO        TMR2_INTERRUPT_END      ;Exit Routine
                      00137     
                      00138     ;***************************************************************************************
                      00139     ;**** CONNECT_TIMEOUT occurs when 0.5S has passed without UART receive. This signals ***
                      00140     ;**** that the master lost connection to the controller. Can Send "All Stop Command" ***
                      00141     ;***  to the slave boards (Note: This version of the code handles an All Stop on the ***
                      00142     ;***  slaves when they do not receive updated I2C; i.e. I2C COM Timeout on the slave)***
                      00143     ;***************************************************************************************
002C                  00144 CONNECT_TIMEOUT
002C   300F           00145     MOVLW       D'15'
002D   00AF           00146     MOVWF       CONNECT_CHK_COUNT       ;Reset Count to 15 so next itteration will timeout
002E   2???           00147     CALL        CONTROLLER_DISCONNECT   ;Run All stop Commands to slaves
002F                  00148 TMR2_INTERRUPT_END
002F   0008           00149     RETURN
                      00150 
0030                  00151 CONTROLLER_DISCONNECT  ;******Connection Timeout Occured.  Run Stop Functions******
                      00152     ;**** Here Add an All Stop Command to the slaves for UART Timeout ****
                      00153     ;**** i.e. Send Motor Stop VIA I2C to Peripheral Boards           ****
0030   0008           00154     RETURN
                      00155    
                      00156 ;***************************************************************************************
                      00157 ;**** SEND_I2C Occurs when the I2C Delay Flag is set (NEW_RX_DATA,1 ; Every 96mS)    ***
                      00158 ;****  This function Loads the Board Addresses and Desired Data to be sent and runs  ***
                      00159 ;****  the I2C_WRITE Function to Transmit I2C Data to Each Slave.                    ***
                      00160 ;****------------------------------Important Note:-----------------------------------***
                      00161 ;**** This is the function you will most likely change.  Determine which slaves get  ***
                      00162 ;****  which controller data bytes(4 Max) and initiate the sending of I2C Data.      ***
                      00163 ;****--------------------------------------------------------------------------------***
                      00164 ;***************************************************************************************
0031                  00165 SEND_I2C
0031   0020           00166     BANKSEL     DRIVE_CONTROL_W
0032   0847           00167     MOVFW       DRIVE_CONTROL_W
0033   0020           00168     BANKSEL     ADDRESS_W
MPASM 5.84               UNV_MASTER_MAIN.ASM   4-29-2026  14:26:15         PAGE 22


LOC  OBJECT CODE     LINE SOURCE TEXT
  VALUE

0034   00C0           00169     MOVWF       ADDRESS_W           ;Set Drive Control Board I2C Address
0035   0020           00170     BANKSEL     JOY1_UD
0036   0822           00171     MOVFW       JOY1_UD
0037   0020           00172     BANKSEL     DATA_TX_1
0038   00C2           00173     MOVWF       DATA_TX_1           ;Load Joystick 1 Up and Down Data Byte as Data Byte 1
0039   0020           00174     BANKSEL     JOY1_LR
003A   0823           00175     MOVFW       JOY1_LR
003B   0020           00176     BANKSEL     DATA_TX_2
003C   00C3           00177     MOVWF       DATA_TX_2           ;Load Joystick 1 Left and Right Data Byte as Data Byte 2
003D   0020           00178     BANKSEL     JOY2_UD
003E   0824           00179     MOVFW       JOY2_UD
003F   0020           00180     BANKSEL     DATA_TX_3
0040   00C4           00181     MOVWF       DATA_TX_3           ;Load Joystick 2 Up and Down Data Byte as Data Byte 3
0041   0020           00182     BANKSEL     JOY2_LR
0042   0825           00183     MOVFW       JOY2_LR
0043   0020           00184     BANKSEL     DATA_TX_4
0044   00C5           00185     MOVWF       DATA_TX_4           ;Load Joystick 2 Left and Right Data Byte as Data Byte 4
0045   2???           00186     CALL        I2C_WRITE
                      00187     ;Load and Send Peripheral Board Data 
0046   0020           00188     BANKSEL     PERIPHERAL_CONTROL_W
0047   0849           00189     MOVFW       PERIPHERAL_CONTROL_W
0048   0020           00190     BANKSEL     ADDRESS_W
0049   00C0           00191     MOVWF       ADDRESS_W           ;Set Peripheral Control Board I2C Address
004A   0020           00192     BANKSEL     JOY3_UD
004B   0826           00193     MOVFW       JOY3_UD
004C   0020           00194     BANKSEL     DATA_TX_1
004D   00C2           00195     MOVWF       DATA_TX_1           ;Load Joystick 3 Up and Down Data Byte as Data Byte 1
004E   0020           00196     BANKSEL     JOY3_LR
004F   0827           00197     MOVFW       JOY3_LR
0050   0020           00198     BANKSEL     DATA_TX_2
0051   00C3           00199     MOVWF       DATA_TX_2           ;Load Joystick 3 Left and Right Data Byte as Data Byte 2
0052   0020           00200     BANKSEL     BUTTON_STATUS_1
0053   0828           00201     MOVFW       BUTTON_STATUS_1
0054   0020           00202     BANKSEL     DATA_TX_3
0055   00C4           00203     MOVWF       DATA_TX_3           ;Load Button Data Packet 1 as Data Byte 3
0056   0020           00204     BANKSEL     BUTTON_STATUS_2
0057   0829           00205     MOVFW       BUTTON_STATUS_2
0058   0020           00206     BANKSEL     DATA_TX_4
0059   00C5           00207     MOVWF       DATA_TX_4           ;Load button Data Packet 2 as Data Byte 4
005A   2???           00208     CALL        I2C_WRITE
                      00209     ;*******************************************************************************
                      00210     ;***Add More Board Here by Loading Data Bytes and Setting New Board Address  ***
                      00211     ;*** You will also need to add these addresses into Unv_Master_I2C_SetUp.inc ***
                      00212     ;*******************************************************************************
005B                  00213 SEND_I2C_END
005B   0020           00214     BANKSEL     NEW_RX_DATA
005C   10AE           00215     BCF         NEW_RX_DATA,1       ;Clear Flag For Handling I2C Data
005D   0008           00216     RETURN
                      00217  
                      00218 ;******************************************
                      00219 ;Main Code
                      00220 ;******************************************
005E                  00221 MAIN
MPASM 5.84               UNV_MASTER_MAIN.ASM   4-29-2026  14:26:15         PAGE 23


LOC  OBJECT CODE     LINE SOURCE TEXT
  VALUE

                      00222     ;***************************************************************************************
                      00223     ;**** Update Robot Address from Port B Input. (Allows for changing address without   ***
                      00224     ;**** rebooting Robot).                                                              ***
                      00225     ;***************************************************************************************
005E   0020           00226     BANKSEL     PORTB
005F   080D           00227     MOVFW       PORTB
0060   0020           00228     BANKSEL     ROBOT_ADDR
0061   00A1           00229     MOVWF       ROBOT_ADDR      ;Upate Current Status of Port B into Robot Address Register
                      00230     
                      00231     ;***************************************************************************************
                      00232     ;**** Checks the UART receive flag.  Should occur everytime a full UART data packet  ***
                      00233     ;**** is received (Flag is Set in UART_RX function within URC_RX_Handler.inc         ***
                      00234     ;***************************************************************************************
0062   0020           00235     BANKSEL     NEW_RX_DATA
0063   182E           00236     BTFSC       NEW_RX_DATA,0
0064   2???           00237     CALL        DECODE_URC      ;Check for New Data to Decode.  Decode From URC Data Structure
                      00238     
                      00239     ;***************************************************************************************
                      00240     ;**** Check if the I2C Send flag is set.  Should occur every 96mS.  Flag is set in   ***
                      00241     ;**** Timer 2 Interrupt.  Will not Send I2C data if UART COM timeout occurs.         ***
                      00242     ;***************************************************************************************
0065   0020           00243     BANKSEL     NEW_RX_DATA
0066   18AE           00244     BTFSC       NEW_RX_DATA,1
0067   2???           00245     CALL        SEND_I2C        ;Check if enough time has passed to send I2C Data
                      00246     
0068                  00247 MAIN_END
0068   2???           00248     GOTO        MAIN
09E4 1EFF             00249     END                         ;END PROGRAM DIRECTIVE *******************************
MPASM 5.84               UNV_MASTER_MAIN.ASM   4-29-2026  14:26:15         PAGE 24


SYMBOL TABLE
  LABEL                             VALUE 

ABDEN                             00000000
ABDOVF                            00000007
ACKDT                             00000005
ACKEN                             00000004
ACKSTAT                           00000006
ACKTIM                            00000007
ADCON0                            0000009D
ADCON1                            0000009E
ADCON2                            0000009F
ADCS0                             00000004
ADCS1                             00000005
ADCS2                             00000006
ADD0                              00000000
ADD1                              00000001
ADD2                              00000002
ADD3                              00000003
ADD4                              00000004
ADD5                              00000005
ADD6                              00000006
ADD7                              00000007
ADDEN                             00000003
ADDRESS_R                         00000041
ADDRESS_SENT_R_1                  0000006A
ADDRESS_SENT_R_2                  00000089
ADDRESS_SENT_W                    00000028
ADDRESS_W                         00000040
ADDR_VERIFIED                     0000002F
ADFM                              00000007
ADFVR0                            00000000
ADFVR1                            00000001
ADGO                              00000001
ADIE                              00000006
ADIF                              00000006
ADNREF                            00000002
ADON                              00000000
ADPREF0                           00000000
ADPREF1                           00000001
ADRES                             0000009B
ADRESH                            0000009C
ADRESL                            0000009B
ADRMD                             00000007
AHEN                              00000001
ANSA0                             00000000
ANSA1                             00000001
ANSA2                             00000002
ANSA3                             00000003
ANSA4                             00000004
ANSA5                             00000005
ANSA7                             00000007
ANSB0                             00000000
ANSB1                             00000001
ANSB2                             00000002
ANSB3                             00000003
MPASM 5.84               UNV_MASTER_MAIN.ASM   4-29-2026  14:26:15         PAGE 25


SYMBOL TABLE
  LABEL                             VALUE 

ANSB4                             00000004
ANSB5                             00000005
ANSB6                             00000006
ANSC0                             00000000
ANSC1                             00000001
ANSC2                             00000002
ANSC3                             00000003
ANSC4                             00000004
ANSC5                             00000005
ANSC6                             00000006
ANSC7                             00000007
ANSELA                            0000018C
ANSELB                            0000018D
ANSELC                            0000018E
APFCON                            0000011D
APFCON0                           0000011D
APFCON1                           0000011D
APFCON2                           0000011C
BAD_COND                          000000A7
BAD_STOP_DONE                     000000A9
BAUD                              D'100'
BAUD1CON                          0000019F
BAUDCON                           0000019F
BAUDCON1                          0000019F
BAUDCTL                           0000019F
BAUDCTL1                          0000019F
BCL1IE                            00000003
BCL1IF                            00000003
BF                                00000000
BOEN                              00000004
BORCON                            00000116
BORFS                             00000006
BORRDY                            00000000
BRG16                             00000003
BRGH                              00000002
BSR                               00000008
BSR0                              00000000
BSR1                              00000001
BSR2                              00000002
BSR3                              00000003
BSR4                              00000004
BSR_SHAD                          00000FE6
BUF0                              00000000
BUF1                              00000001
BUF2                              00000002
BUF3                              00000003
BUF4                              00000004
BUF5                              00000005
BUF6                              00000006
BUF7                              00000007
BUTTON_DATA                       0000007A
BUTTON_STATUS_1                   00000028
BUTTON_STATUS_2                   00000029
MPASM 5.84               UNV_MASTER_MAIN.ASM   4-29-2026  14:26:15         PAGE 26


SYMBOL TABLE
  LABEL                             VALUE 

BYTE_1                            0000001B
BYTE_2                            00000026
BYTE_3                            00000034
BYTE_4                            0000003B
BYTE_5                            00000042
BYTE_6                            00000049
BYTE_COUNT                        00000020
C                                 00000000
C1HYS                             00000001
C1IE                              00000005
C1IF                              00000005
C1INTN                            00000006
C1INTP                            00000007
C1NCH0                            00000000
C1NCH1                            00000001
C1NCH2                            00000002
C1OE                              00000005
C1ON                              00000007
C1OUT                             00000006
C1PCH0                            00000003
C1PCH1                            00000004
C1PCH2                            00000005
C1POL                             00000004
C1SP                              00000002
C1SYNC                            00000000
C1ZLF                             00000003
C2HYS                             00000001
C2IE                              00000006
C2IF                              00000006
C2INTN                            00000006
C2INTP                            00000007
C2NCH0                            00000000
C2NCH1                            00000001
C2NCH2                            00000002
C2OE                              00000005
C2ON                              00000007
C2OUT                             00000006
C2OUTSEL                          00000007
C2PCH0                            00000003
C2PCH1                            00000004
C2PCH2                            00000005
C2POL                             00000004
C2SP                              00000002
C2SYNC                            00000000
C2ZLF                             00000003
C3HYS                             00000001
C3IE                              00000001
C3IF                              00000001
C3INTN                            00000006
C3INTP                            00000007
C3NCH0                            00000000
C3NCH1                            00000001
C3NCH2                            00000002
MPASM 5.84               UNV_MASTER_MAIN.ASM   4-29-2026  14:26:15         PAGE 27


SYMBOL TABLE
  LABEL                             VALUE 

C3OE                              00000005
C3ON                              00000007
C3OUT                             00000006
C3PCH0                            00000003
C3PCH1                            00000004
C3PCH2                            00000005
C3POL                             00000004
C3SP                              00000002
C3SYNC                            00000000
C3ZLF                             00000003
C4HYS                             00000001
C4IE                              00000002
C4IF                              00000002
C4INTN                            00000006
C4INTP                            00000007
C4NCH0                            00000000
C4NCH1                            00000001
C4NCH2                            00000002
C4OE                              00000005
C4ON                              00000007
C4OUT                             00000006
C4PCH0                            00000003
C4PCH1                            00000004
C4PCH2                            00000005
C4POL                             00000004
C4SP                              00000002
C4SYNC                            00000000
C4ZLF                             00000003
CCP1CON                           00000293
CCP1IE                            00000002
CCP1IF                            00000002
CCP1M0                            00000000
CCP1M1                            00000001
CCP1M2                            00000002
CCP1M3                            00000003
CCP1SEL                           00000006
CCP2CON                           0000029A
CCP2IE                            00000000
CCP2IF                            00000000
CCP2M0                            00000000
CCP2M1                            00000001
CCP2M2                            00000002
CCP2M3                            00000003
CCP2SEL                           00000000
CCP3CON                           00000313
CCP3IE                            00000004
CCP3IF                            00000004
CCP3M0                            00000000
CCP3M1                            00000001
CCP3M2                            00000002
CCP3M3                            00000003
CCP3SEL                           00000000
CCPR1                             00000291
MPASM 5.84               UNV_MASTER_MAIN.ASM   4-29-2026  14:26:15         PAGE 28


SYMBOL TABLE
  LABEL                             VALUE 

CCPR1H                            00000292
CCPR1L                            00000291
CCPR2                             00000298
CCPR2H                            00000299
CCPR2L                            00000298
CCPR3                             00000311
CCPR3H                            00000312
CCPR3L                            00000311
CDAFVR0                           00000002
CDAFVR1                           00000003
CFGS                              00000006
CHECK_R_W                         000000B3
CHS0                              00000002
CHS1                              00000003
CHS2                              00000004
CHS3                              00000005
CHS4                              00000006
CHSN0                             00000000
CHSN1                             00000001
CHSN2                             00000002
CHSN3                             00000003
CKE                               00000006
CKP                               00000004
CLKRCON                           0000051A
CLKRDC0                           00000003
CLKRDC1                           00000004
CLKRDIV0                          00000000
CLKRDIV1                          00000001
CLKRDIV2                          00000002
CLKREN                            00000007
CLKROE                            00000006
CLKRSLR                           00000005
CM1CON0                           00000111
CM1CON1                           00000112
CM2CON0                           00000113
CM2CON1                           00000114
CM3CON0                           0000011E
CM3CON1                           0000011F
CM4CON0                           0000011A
CM4CON1                           0000011B
CMOUT                             00000115
CONNECT_CHK_COUNT                 0000002F
CONNECT_TIMEOUT                   0000002C
CONTROLLER_DISCONNECT             00000030
CREN                              00000004
CSRC                              00000007
CURRENT_DATA_PACK                 0000002A
C_SHAD                            00000000
DAC1CON0                          00000118
DAC1CON1                          00000119
DAC1EN                            00000007
DAC1NSS                           00000000
DAC1OE1                           00000005
MPASM 5.84               UNV_MASTER_MAIN.ASM   4-29-2026  14:26:15         PAGE 29


SYMBOL TABLE
  LABEL                             VALUE 

DAC1OE2                           00000004
DAC1PSS0                          00000002
DAC1PSS1                          00000003
DAC1R0                            00000000
DAC1R1                            00000001
DAC1R2                            00000002
DAC1R3                            00000003
DAC1R4                            00000004
DAC1R5                            00000005
DAC1R6                            00000006
DAC1R7                            00000007
DAC2CON0                          00000591
DAC2CON1                          00000592
DAC2EN                            00000007
DAC2OE1                           00000005
DAC2OE2                           00000004
DAC2REF                           00000592
DAC3CON0                          00000593
DAC3CON1                          00000594
DAC3EN                            00000007
DAC3OE1                           00000005
DAC3OE2                           00000004
DAC3REF                           00000594
DAC4CON0                          00000595
DAC4CON1                          00000596
DAC4EN                            00000007
DAC4OE1                           00000005
DAC4OE2                           00000004
DAC4REF                           00000596
DACEN                             00000007
DACNSS                            00000000
DACOE0                            00000004
DACOE1                            00000005
DACPSS0                           00000002
DACPSS1                           00000003
DACR0                             00000000
DACR1                             00000001
DACR2                             00000002
DACR3                             00000003
DACR4                             00000004
DACR5                             00000005
DACR6                             00000006
DACR7                             00000007
DATA_1_SENT                       00000033
DATA_1_SENT_R                     00000077
DATA_2_SENT                       0000003E
DATA_3_SENT                       00000049
DATA_4_SENT                       00000054
DATA_RECEIVED                     00000046
DATA_TX_1                         00000042
DATA_TX_2                         00000043
DATA_TX_3                         00000044
DATA_TX_4                         00000045
MPASM 5.84               UNV_MASTER_MAIN.ASM   4-29-2026  14:26:15         PAGE 30


SYMBOL TABLE
  LABEL                             VALUE 

DC                                00000001
DC1B0                             00000004
DC1B1                             00000005
DC2B0                             00000004
DC2B1                             00000005
DC3B0                             00000004
DC3B1                             00000005
DC_SHAD                           00000001
DECODE_URC                        00000052
DECODE_URC_END                    00000082
DHEN                              00000000
DONE                              00000001
DRIVE_CONTROL_R                   00000048
DRIVE_CONTROL_W                   00000047
D_NOT_A                           00000005
EEADR                             00000191
EEADRH                            00000192
EEADRL                            00000191
EECON1                            00000195
EECON2                            00000196
EEDAT                             00000193
EEDATH                            00000194
EEDATL                            00000193
EEIE                              00000004
EEIF                              00000004
EEPGD                             00000007
EN                                00000007
F                                 00000001
FERR                              00000002
FOSC                              D'16000'
FREE                              00000004
FSR0                              00000004
FSR0H                             00000005
FSR0H_SHAD                        00000FE9
FSR0L                             00000004
FSR0L_SHAD                        00000FE8
FSR1                              00000006
FSR1H                             00000007
FSR1H_SHAD                        00000FEB
FSR1L                             00000006
FSR1L_SHAD                        00000FEA
FVRCON                            00000117
FVREN                             00000007
FVRRDY                            00000006
GCEN                              00000007
GIE                               00000007
GO                                00000001
GOOD_STOP                         0000005B
GOOD_STOP_DONE                    0000005D
GO_NOT_DONE                       00000001
HANDSHAKE_VERIFIED                00000023
HFIOFL                            00000003
HFIOFR                            00000004
MPASM 5.84               UNV_MASTER_MAIN.ASM   4-29-2026  14:26:15         PAGE 31


SYMBOL TABLE
  LABEL                             VALUE 

HFIOFS                            00000000
I2C_COM_DELAY                     00000030
I2C_IDLE                          000000AD
I2C_READ                          00000061
I2C_SETUP_MASTER                  00000000
I2C_WRITE                         0000001F
INDF0                             00000000
INDF1                             00000001
INITIALIZE                        00000000
INLVLA                            0000038C
INLVLA0                           00000000
INLVLA1                           00000001
INLVLA2                           00000002
INLVLA3                           00000003
INLVLA4                           00000004
INLVLA5                           00000005
INLVLA6                           00000006
INLVLA7                           00000007
INLVLB                            0000038D
INLVLB0                           00000000
INLVLB1                           00000001
INLVLB2                           00000002
INLVLB3                           00000003
INLVLB4                           00000004
INLVLB5                           00000005
INLVLB6                           00000006
INLVLB7                           00000007
INLVLC                            0000038E
INLVLC0                           00000000
INLVLC1                           00000001
INLVLC2                           00000002
INLVLC3                           00000003
INLVLC4                           00000004
INLVLC5                           00000005
INLVLC6                           00000006
INLVLC7                           00000007
INLVLE                            00000390
INLVLE3                           00000003
INTCON                            0000000B
INTE                              00000004
INTEDG                            00000006
INTERRUPT                         0000000E
INTF                              00000001
IOCAF                             00000393
IOCAF0                            00000000
IOCAF1                            00000001
IOCAF2                            00000002
IOCAF3                            00000003
IOCAF4                            00000004
IOCAF5                            00000005
IOCAF6                            00000006
IOCAF7                            00000007
IOCAN                             00000392
MPASM 5.84               UNV_MASTER_MAIN.ASM   4-29-2026  14:26:15         PAGE 32


SYMBOL TABLE
  LABEL                             VALUE 

IOCAN0                            00000000
IOCAN1                            00000001
IOCAN2                            00000002
IOCAN3                            00000003
IOCAN4                            00000004
IOCAN5                            00000005
IOCAN6                            00000006
IOCAN7                            00000007
IOCAP                             00000391
IOCAP0                            00000000
IOCAP1                            00000001
IOCAP2                            00000002
IOCAP3                            00000003
IOCAP4                            00000004
IOCAP5                            00000005
IOCAP6                            00000006
IOCAP7                            00000007
IOCBF                             00000396
IOCBF0                            00000000
IOCBF1                            00000001
IOCBF2                            00000002
IOCBF3                            00000003
IOCBF4                            00000004
IOCBF5                            00000005
IOCBF6                            00000006
IOCBF7                            00000007
IOCBN                             00000395
IOCBN0                            00000000
IOCBN1                            00000001
IOCBN2                            00000002
IOCBN3                            00000003
IOCBN4                            00000004
IOCBN5                            00000005
IOCBN6                            00000006
IOCBN7                            00000007
IOCBP                             00000394
IOCBP0                            00000000
IOCBP1                            00000001
IOCBP2                            00000002
IOCBP3                            00000003
IOCBP4                            00000004
IOCBP5                            00000005
IOCBP6                            00000006
IOCBP7                            00000007
IOCCF                             00000399
IOCCF0                            00000000
IOCCF1                            00000001
IOCCF2                            00000002
IOCCF3                            00000003
IOCCF4                            00000004
IOCCF5                            00000005
IOCCF6                            00000006
IOCCF7                            00000007
MPASM 5.84               UNV_MASTER_MAIN.ASM   4-29-2026  14:26:15         PAGE 33


SYMBOL TABLE
  LABEL                             VALUE 

IOCCN                             00000398
IOCCN0                            00000000
IOCCN1                            00000001
IOCCN2                            00000002
IOCCN3                            00000003
IOCCN4                            00000004
IOCCN5                            00000005
IOCCN6                            00000006
IOCCN7                            00000007
IOCCP                             00000397
IOCCP0                            00000000
IOCCP1                            00000001
IOCCP2                            00000002
IOCCP3                            00000003
IOCCP4                            00000004
IOCCP5                            00000005
IOCCP6                            00000006
IOCCP7                            00000007
IOCEF                             0000039F
IOCEF3                            00000003
IOCEN                             0000039E
IOCEN3                            00000003
IOCEP                             0000039D
IOCEP3                            00000003
IOCIE                             00000003
IOCIF                             00000000
IRCF0                             00000003
IRCF1                             00000004
IRCF2                             00000005
IRCF3                             00000006
JOY1_LR                           00000023
JOY1_UD                           00000022
JOY2_LR                           00000025
JOY2_UD                           00000024
JOY3_LR                           00000027
JOY3_UD                           00000026
JOYSTICK_DATA_1                   00000060
JOYSTICK_DATA_2                   0000006D
LATA                              0000010C
LATA0                             00000000
LATA1                             00000001
LATA2                             00000002
LATA3                             00000003
LATA4                             00000004
LATA5                             00000005
LATA6                             00000006
LATA7                             00000007
LATB                              0000010D
LATB0                             00000000
LATB1                             00000001
LATB2                             00000002
LATB3                             00000003
LATB4                             00000004
MPASM 5.84               UNV_MASTER_MAIN.ASM   4-29-2026  14:26:15         PAGE 34


SYMBOL TABLE
  LABEL                             VALUE 

LATB5                             00000005
LATB6                             00000006
LATB7                             00000007
LATC                              0000010E
LATC0                             00000000
LATC1                             00000001
LATC2                             00000002
LATC3                             00000003
LATC4                             00000004
LATC5                             00000005
LATC6                             00000006
LATC7                             00000007
LFIOFR                            00000001
LWLO                              00000005
MAIN                              0000005E
MAIN_END                          00000068
MC1OUT                            00000000
MC2OUT                            00000001
MC3OUT                            00000002
MC4OUT                            00000003
MEM_SAVE_1                        0000002B
MEM_SAVE_2                        0000002C
MEM_SAVE_3                        0000002D
MFIOFR                            00000002
MSK0                              00000000
MSK1                              00000001
MSK2                              00000002
MSK3                              00000003
MSK4                              00000004
MSK5                              00000005
MSK6                              00000006
MSK7                              00000007
NACK_DONE                         0000009A
NEW_RX_DATA                       0000002E
NOT_BOR                           00000000
NOT_PD                            00000003
NOT_POR                           00000001
NOT_RI                            00000002
NOT_RMCLR                         00000003
NOT_RWDT                          00000004
NOT_T1SYNC                        00000002
NOT_TO                            00000004
NOT_WPUEN                         00000007
ODCONA                            0000028C
ODCONA0                           00000000
ODCONA1                           00000001
ODCONA2                           00000002
ODCONA3                           00000003
ODCONA4                           00000004
ODCONA5                           00000005
ODCONA6                           00000006
ODCONA7                           00000007
ODCONB                            0000028D
MPASM 5.84               UNV_MASTER_MAIN.ASM   4-29-2026  14:26:15         PAGE 35


SYMBOL TABLE
  LABEL                             VALUE 

ODCONB0                           00000000
ODCONB1                           00000001
ODCONB2                           00000002
ODCONB3                           00000003
ODCONB4                           00000004
ODCONB5                           00000005
ODCONB6                           00000006
ODCONB7                           00000007
ODCONC                            0000028E
ODCONC0                           00000000
ODCONC1                           00000001
ODCONC2                           00000002
ODCONC3                           00000003
ODCONC4                           00000004
ODCONC5                           00000005
ODCONC6                           00000006
ODCONC7                           00000007
OERR                              00000001
OPA1CON                           00000511
OPA1EN                            00000007
OPA1PCH0                          00000000
OPA1PCH1                          00000001
OPA1PCH2                          00000002
OPA1SP                            00000006
OPA2CON                           00000513
OPA2EN                            00000007
OPA2PCH0                          00000000
OPA2PCH1                          00000001
OPA2PCH2                          00000002
OPA2SP                            00000006
OPTION_REG                        00000095
OSCCON                            00000099
OSCSTAT                           0000009A
OSCTUNE                           00000098
OSFIE                             00000007
OSFIF                             00000007
OSTS                              00000005
P                                 00000004
P1ARSEN                           00000005
P1ASDEN                           00000006
P1ASDLA                           00000000
P1ASDLB                           00000001
P1ASDLC                           00000002
P1ASDLD                           00000003
P1ASDLE                           00000004
P1ASDLF                           00000005
P1ASDOV                           00000000
P1ASDSC1                          00000001
P1ASDSC2                          00000002
P1ASDSC3                          00000003
P1ASDSC4                          00000004
P1ASDSIN                          00000007
P1ASE                             00000007
MPASM 5.84               UNV_MASTER_MAIN.ASM   4-29-2026  14:26:15         PAGE 36


SYMBOL TABLE
  LABEL                             VALUE 

P1CPRE0                           00000004
P1CPRE1                           00000005
P1CSRC0                           00000000
P1CSRC1                           00000001
P1DBFE                            00000005
P1DBRE                            00000004
P1DCPOL                           00000005
P1DCSC1                           00000001
P1DCSC2                           00000002
P1DCSC3                           00000003
P1DCSC4                           00000004
P1DCSIN                           00000007
P1DCST                            00000000
P1FEBM0                           00000004
P1FEBM1                           00000005
P1FEBSC1                          00000001
P1FEBSC2                          00000002
P1FEBSC3                          00000003
P1FEBSC4                          00000004
P1FEBSIN                          00000007
P1HSMEN                           00000000
P1INPOL                           00000006
P1LSMEN                           00000001
P1MDLBIT                          00000005
P1MDLEN                           00000007
P1MDLPOL                          00000006
P1MODE0                           00000000
P1MODE1                           00000001
P1MODE2                           00000002
P1MODE3                           00000003
P1MSRC0                           00000000
P1MSRC1                           00000001
P1MSRC2                           00000002
P1MSRC3                           00000003
P1OEA                             00000000
P1OEB                             00000001
P1OEC                             00000002
P1OED                             00000003
P1OEE                             00000004
P1OEF                             00000005
P1PHSC1                           00000001
P1PHSC2                           00000002
P1PHSC3                           00000003
P1PHSC4                           00000004
P1PHSIN                           00000007
P1PHST                            00000000
P1POFST                           00000007
P1POLA                            00000000
P1POLB                            00000001
P1POLC                            00000002
P1POLD                            00000003
P1POLE                            00000004
P1POLF                            00000005
MPASM 5.84               UNV_MASTER_MAIN.ASM   4-29-2026  14:26:15         PAGE 37


SYMBOL TABLE
  LABEL                             VALUE 

P1PRPOL                           00000006
P1PRSC1                           00000001
P1PRSC2                           00000002
P1PRSC3                           00000003
P1PRSC4                           00000004
P1PRSIN                           00000007
P1PRST                            00000000
P1REBM0                           00000000
P1REBM1                           00000001
P1REBSC1                          00000001
P1REBSC2                          00000002
P1REBSC3                          00000003
P1REBSC4                          00000004
P1REBSIN                          00000007
P1SSYNC                           00000007
P1STRA                            00000000
P1STRB                            00000001
P1STRC                            00000002
P1STRD                            00000003
P1STRE                            00000004
P1STRF                            00000005
P1SYNC0                           00000000
P1SYNC1                           00000001
P1SYNC2                           00000002
P1TDCIE                           00000005
P1TDCIF                           00000001
P1TOVIE                           00000007
P1TOVIF                           00000003
P1TPHIE                           00000006
P1TPHIF                           00000002
P1TPRIE                           00000004
P1TPRIF                           00000000
P2ARSEN                           00000005
P2ASDEN                           00000006
P2ASDLA                           00000000
P2ASDLB                           00000001
P2ASDOV                           00000000
P2ASDSC1                          00000001
P2ASDSC2                          00000002
P2ASDSC3                          00000003
P2ASDSC4                          00000004
P2ASDSIN                          00000007
P2ASE                             00000007
P2CPRE0                           00000004
P2CPRE1                           00000005
P2CSRC0                           00000000
P2CSRC1                           00000001
P2DBFE                            00000005
P2DBRE                            00000004
P2DCPOL                           00000005
P2DCSC1                           00000001
P2DCSC2                           00000002
P2DCSC3                           00000003
MPASM 5.84               UNV_MASTER_MAIN.ASM   4-29-2026  14:26:15         PAGE 38


SYMBOL TABLE
  LABEL                             VALUE 

P2DCSC4                           00000004
P2DCSIN                           00000007
P2DCST                            00000000
P2FEBM0                           00000004
P2FEBM1                           00000005
P2FEBSC1                          00000001
P2FEBSC2                          00000002
P2FEBSC3                          00000003
P2FEBSC4                          00000004
P2FEBSIN                          00000007
P2HSMEN                           00000000
P2INPOL                           00000006
P2LSMEN                           00000001
P2MDLBIT                          00000005
P2MDLEN                           00000007
P2MDLPOL                          00000006
P2MODE0                           00000000
P2MODE1                           00000001
P2MODE2                           00000002
P2MODE3                           00000003
P2MSRC0                           00000000
P2MSRC1                           00000001
P2MSRC2                           00000002
P2MSRC3                           00000003
P2OEA                             00000000
P2OEB                             00000001
P2PHSC1                           00000001
P2PHSC2                           00000002
P2PHSC3                           00000003
P2PHSC4                           00000004
P2PHSIN                           00000007
P2PHST                            00000000
P2POFST                           00000007
P2POLA                            00000000
P2POLB                            00000001
P2PRPOL                           00000006
P2PRSC1                           00000001
P2PRSC2                           00000002
P2PRSC3                           00000003
P2PRSC4                           00000004
P2PRSIN                           00000007
P2PRST                            00000000
P2REBM0                           00000000
P2REBM1                           00000001
P2REBSC1                          00000001
P2REBSC2                          00000002
P2REBSC3                          00000003
P2REBSC4                          00000004
P2REBSIN                          00000007
P2SSYNC                           00000007
P2STRA                            00000000
P2STRB                            00000001
P2SYNC0                           00000000
MPASM 5.84               UNV_MASTER_MAIN.ASM   4-29-2026  14:26:15         PAGE 39


SYMBOL TABLE
  LABEL                             VALUE 

P2SYNC1                           00000001
P2SYNC2                           00000002
P2TDCIE                           00000005
P2TDCIF                           00000001
P2TOVIE                           00000007
P2TOVIF                           00000003
P2TPHIE                           00000006
P2TPHIF                           00000002
P2TPRIE                           00000004
P2TPRIF                           00000000
P3ARSEN                           00000005
P3ASDEN                           00000006
P3ASDLA                           00000000
P3ASDLB                           00000001
P3ASDOV                           00000000
P3ASDSC1                          00000001
P3ASDSC2                          00000002
P3ASDSC3                          00000003
P3ASDSC4                          00000004
P3ASDSIN                          00000007
P3ASE                             00000007
P3CPRE0                           00000004
P3CPRE1                           00000005
P3CSRC0                           00000000
P3CSRC1                           00000001
P3DBFE                            00000005
P3DBRE                            00000004
P3DCPOL                           00000005
P3DCSC1                           00000001
P3DCSC2                           00000002
P3DCSC3                           00000003
P3DCSC4                           00000004
P3DCSIN                           00000007
P3DCST                            00000000
P3FEBM0                           00000004
P3FEBM1                           00000005
P3FEBSC1                          00000001
P3FEBSC2                          00000002
P3FEBSC3                          00000003
P3FEBSC4                          00000004
P3FEBSIN                          00000007
P3HSMEN                           00000000
P3INPOL                           00000006
P3LSMEN                           00000001
P3MDLBIT                          00000005
P3MDLEN                           00000007
P3MDLPOL                          00000006
P3MODE0                           00000000
P3MODE1                           00000001
P3MODE2                           00000002
P3MODE3                           00000003
P3MSRC0                           00000000
P3MSRC1                           00000001
MPASM 5.84               UNV_MASTER_MAIN.ASM   4-29-2026  14:26:15         PAGE 40


SYMBOL TABLE
  LABEL                             VALUE 

P3MSRC2                           00000002
P3MSRC3                           00000003
P3OEA                             00000000
P3OEB                             00000001
P3PHSC1                           00000001
P3PHSC2                           00000002
P3PHSC3                           00000003
P3PHSC4                           00000004
P3PHSIN                           00000007
P3PHST                            00000000
P3POFST                           00000007
P3POLA                            00000000
P3POLB                            00000001
P3PRPOL                           00000006
P3PRSC1                           00000001
P3PRSC2                           00000002
P3PRSC3                           00000003
P3PRSC4                           00000004
P3PRSIN                           00000007
P3PRST                            00000000
P3REBM0                           00000000
P3REBM1                           00000001
P3REBSC1                          00000001
P3REBSC2                          00000002
P3REBSC3                          00000003
P3REBSC4                          00000004
P3REBSIN                          00000007
P3SSYNC                           00000007
P3STRA                            00000000
P3STRB                            00000001
P3SYNC0                           00000000
P3SYNC1                           00000001
P3SYNC2                           00000002
P3TDCIE                           00000005
P3TDCIF                           00000001
P3TOVIE                           00000007
P3TOVIF                           00000003
P3TPHIE                           00000006
P3TPHIF                           00000002
P3TPRIE                           00000004
P3TPRIF                           00000000
P4ARSEN                           00000005
P4ASDEN                           00000006
P4ASDLA                           00000000
P4ASDLB                           00000001
P4ASDOV                           00000000
P4ASDSC1                          00000001
P4ASDSC2                          00000002
P4ASDSC3                          00000003
P4ASDSC4                          00000004
P4ASDSIN                          00000007
P4ASE                             00000007
P4CPRE0                           00000004
MPASM 5.84               UNV_MASTER_MAIN.ASM   4-29-2026  14:26:15         PAGE 41


SYMBOL TABLE
  LABEL                             VALUE 

P4CPRE1                           00000005
P4CSRC0                           00000000
P4CSRC1                           00000001
P4DBFE                            00000005
P4DBRE                            00000004
P4DCPOL                           00000005
P4DCSC1                           00000001
P4DCSC2                           00000002
P4DCSC3                           00000003
P4DCSC4                           00000004
P4DCSIN                           00000007
P4DCST                            00000000
P4FEBM0                           00000004
P4FEBM1                           00000005
P4FEBSC1                          00000001
P4FEBSC2                          00000002
P4FEBSC3                          00000003
P4FEBSC4                          00000004
P4FEBSIN                          00000007
P4HSMEN                           00000000
P4INPOL                           00000006
P4LSMEN                           00000001
P4MDLBIT                          00000005
P4MDLEN                           00000007
P4MDLPOL                          00000006
P4MODE0                           00000000
P4MODE1                           00000001
P4MODE2                           00000002
P4MODE3                           00000003
P4MSRC0                           00000000
P4MSRC1                           00000001
P4MSRC2                           00000002
P4MSRC3                           00000003
P4OEA                             00000000
P4OEB                             00000001
P4PHSC1                           00000001
P4PHSC2                           00000002
P4PHSC3                           00000003
P4PHSC4                           00000004
P4PHSIN                           00000007
P4PHST                            00000000
P4POFST                           00000007
P4POLA                            00000000
P4POLB                            00000001
P4PRPOL                           00000006
P4PRSC1                           00000001
P4PRSC2                           00000002
P4PRSC3                           00000003
P4PRSC4                           00000004
P4PRSIN                           00000007
P4PRST                            00000000
P4REBM0                           00000000
P4REBM1                           00000001
MPASM 5.84               UNV_MASTER_MAIN.ASM   4-29-2026  14:26:15         PAGE 42


SYMBOL TABLE
  LABEL                             VALUE 

P4REBSC1                          00000001
P4REBSC2                          00000002
P4REBSC3                          00000003
P4REBSC4                          00000004
P4REBSIN                          00000007
P4SSYNC                           00000007
P4STRA                            00000000
P4STRB                            00000001
P4SYNC0                           00000000
P4SYNC1                           00000001
P4SYNC2                           00000002
P4TDCIE                           00000005
P4TDCIF                           00000001
P4TOVIE                           00000007
P4TOVIF                           00000003
P4TPHIE                           00000006
P4TPHIF                           00000002
P4TPRIE                           00000004
P4TPRIF                           00000000
PCH0                              00000000
PCH1                              00000001
PCH2                              00000002
PCIE                              00000006
PCL                               00000002
PCLATH                            0000000A
PCLATH_SHAD                       00000FE7
PCON                              00000096
PEIE                              00000006
PEN                               00000002
PERIPHERAL_CONTROL_R              0000004A
PERIPHERAL_CONTROL_W              00000049
PIE1                              00000091
PIE2                              00000092
PIE3                              00000093
PIE4                              00000094
PIR1                              00000011
PIR2                              00000012
PIR3                              00000013
PIR4                              00000014
PLLR                              00000006
PMSC3TIE                          00000006
PORTA                             0000000C
PORTB                             0000000D
PORTC                             0000000E
PORTE                             00000010
PR2                               0000001B
PS0                               00000000
PS1                               00000001
PS2                               00000002
PSA                               00000003
PSMC1ASDC                         00000E9D
PSMC1ASDL                         00000E9E
PSMC1ASDS                         00000E9F
MPASM 5.84               UNV_MASTER_MAIN.ASM   4-29-2026  14:26:15         PAGE 43


SYMBOL TABLE
  LABEL                             VALUE 

PSMC1BLKF                         00000EAC
PSMC1BLKF0                        00000000
PSMC1BLKF1                        00000001
PSMC1BLKF2                        00000002
PSMC1BLKF3                        00000003
PSMC1BLKF4                        00000004
PSMC1BLKF5                        00000005
PSMC1BLKF6                        00000006
PSMC1BLKF7                        00000007
PSMC1BLKR                         00000EAB
PSMC1BLKR0                        00000000
PSMC1BLKR1                        00000001
PSMC1BLKR2                        00000002
PSMC1BLKR3                        00000003
PSMC1BLKR4                        00000004
PSMC1BLKR5                        00000005
PSMC1BLKR6                        00000006
PSMC1BLKR7                        00000007
PSMC1BLNK                         00000E97
PSMC1CLK                          00000E94
PSMC1CON                          00000E91
PSMC1DBF                          00000EAA
PSMC1DBF0                         00000000
PSMC1DBF1                         00000001
PSMC1DBF2                         00000002
PSMC1DBF3                         00000003
PSMC1DBF4                         00000004
PSMC1DBF5                         00000005
PSMC1DBF6                         00000006
PSMC1DBF7                         00000007
PSMC1DBR                          00000EA9
PSMC1DBR0                         00000000
PSMC1DBR1                         00000001
PSMC1DBR2                         00000002
PSMC1DBR3                         00000003
PSMC1DBR4                         00000004
PSMC1DBR5                         00000005
PSMC1DBR6                         00000006
PSMC1DBR7                         00000007
PSMC1DC                           00000EA3
PSMC1DC0                          00000000
PSMC1DC1                          00000001
PSMC1DC10                         00000002
PSMC1DC11                         00000003
PSMC1DC12                         00000004
PSMC1DC13                         00000005
PSMC1DC14                         00000006
PSMC1DC15                         00000007
PSMC1DC2                          00000002
PSMC1DC3                          00000003
PSMC1DC4                          00000004
PSMC1DC5                          00000005
PSMC1DC6                          00000006
MPASM 5.84               UNV_MASTER_MAIN.ASM   4-29-2026  14:26:15         PAGE 44


SYMBOL TABLE
  LABEL                             VALUE 

PSMC1DC7                          00000007
PSMC1DC8                          00000000
PSMC1DC9                          00000001
PSMC1DCH                          00000EA4
PSMC1DCL                          00000EA3
PSMC1DCS                          00000E9B
PSMC1EN                           00000007
PSMC1FEBS                         00000E99
PSMC1FFA                          00000EAD
PSMC1FFA0                         00000000
PSMC1FFA1                         00000001
PSMC1FFA2                         00000002
PSMC1FFA3                         00000003
PSMC1INT                          00000EA0
PSMC1LD                           00000006
PSMC1MDL                          00000E92
PSMC1OEN                          00000E95
PSMC1PH                           00000EA1
PSMC1PH0                          00000000
PSMC1PH1                          00000001
PSMC1PH10                         00000002
PSMC1PH11                         00000003
PSMC1PH12                         00000004
PSMC1PH13                         00000005
PSMC1PH14                         00000006
PSMC1PH15                         00000007
PSMC1PH2                          00000002
PSMC1PH3                          00000003
PSMC1PH4                          00000004
PSMC1PH5                          00000005
PSMC1PH6                          00000006
PSMC1PH7                          00000007
PSMC1PH8                          00000000
PSMC1PH9                          00000001
PSMC1PHH                          00000EA2
PSMC1PHL                          00000EA1
PSMC1PHS                          00000E9A
PSMC1POL                          00000E96
PSMC1PR                           00000EA5
PSMC1PR0                          00000000
PSMC1PR1                          00000001
PSMC1PR10                         00000002
PSMC1PR11                         00000003
PSMC1PR12                         00000004
PSMC1PR13                         00000005
PSMC1PR14                         00000006
PSMC1PR15                         00000007
PSMC1PR2                          00000002
PSMC1PR3                          00000003
PSMC1PR4                          00000004
PSMC1PR5                          00000005
PSMC1PR6                          00000006
PSMC1PR7                          00000007
MPASM 5.84               UNV_MASTER_MAIN.ASM   4-29-2026  14:26:15         PAGE 45


SYMBOL TABLE
  LABEL                             VALUE 

PSMC1PR8                          00000000
PSMC1PR9                          00000001
PSMC1PRH                          00000EA6
PSMC1PRL                          00000EA5
PSMC1PRS                          00000E9C
PSMC1REBS                         00000E98
PSMC1SIE                          00000000
PSMC1SIF                          00000000
PSMC1STR0                         00000EAE
PSMC1STR1                         00000EAF
PSMC1SYNC                         00000E93
PSMC1TIE                          00000004
PSMC1TIF                          00000004
PSMC1TMR                          00000EA7
PSMC1TMR0                         00000000
PSMC1TMR1                         00000001
PSMC1TMR10                        00000002
PSMC1TMR11                        00000003
PSMC1TMR12                        00000004
PSMC1TMR13                        00000005
PSMC1TMR14                        00000006
PSMC1TMR15                        00000007
PSMC1TMR2                         00000002
PSMC1TMR3                         00000003
PSMC1TMR4                         00000004
PSMC1TMR5                         00000005
PSMC1TMR6                         00000006
PSMC1TMR7                         00000007
PSMC1TMR8                         00000000
PSMC1TMR9                         00000001
PSMC1TMRH                         00000EA8
PSMC1TMRL                         00000EA7
PSMC2ASDC                         00000EBD
PSMC2ASDL                         00000EBE
PSMC2ASDS                         00000EBF
PSMC2BLKF                         00000ECC
PSMC2BLKF0                        00000000
PSMC2BLKF1                        00000001
PSMC2BLKF2                        00000002
PSMC2BLKF3                        00000003
PSMC2BLKF4                        00000004
PSMC2BLKF5                        00000005
PSMC2BLKF6                        00000006
PSMC2BLKF7                        00000007
PSMC2BLKR                         00000ECB
PSMC2BLKR0                        00000000
PSMC2BLKR1                        00000001
PSMC2BLKR2                        00000002
PSMC2BLKR3                        00000003
PSMC2BLKR4                        00000004
PSMC2BLKR5                        00000005
PSMC2BLKR6                        00000006
PSMC2BLKR7                        00000007
MPASM 5.84               UNV_MASTER_MAIN.ASM   4-29-2026  14:26:15         PAGE 46


SYMBOL TABLE
  LABEL                             VALUE 

PSMC2BLNK                         00000EB7
PSMC2CLK                          00000EB4
PSMC2CON                          00000EB1
PSMC2DBF                          00000ECA
PSMC2DBF0                         00000000
PSMC2DBF1                         00000001
PSMC2DBF2                         00000002
PSMC2DBF3                         00000003
PSMC2DBF4                         00000004
PSMC2DBF5                         00000005
PSMC2DBF6                         00000006
PSMC2DBF7                         00000007
PSMC2DBR                          00000EC9
PSMC2DBR0                         00000000
PSMC2DBR1                         00000001
PSMC2DBR2                         00000002
PSMC2DBR3                         00000003
PSMC2DBR4                         00000004
PSMC2DBR5                         00000005
PSMC2DBR6                         00000006
PSMC2DBR7                         00000007
PSMC2DC                           00000EC3
PSMC2DC0                          00000000
PSMC2DC1                          00000001
PSMC2DC10                         00000002
PSMC2DC11                         00000003
PSMC2DC12                         00000004
PSMC2DC13                         00000005
PSMC2DC14                         00000006
PSMC2DC15                         00000007
PSMC2DC2                          00000002
PSMC2DC3                          00000003
PSMC2DC4                          00000004
PSMC2DC5                          00000005
PSMC2DC6                          00000006
PSMC2DC7                          00000007
PSMC2DC8                          00000000
PSMC2DC9                          00000001
PSMC2DCH                          00000EC4
PSMC2DCL                          00000EC3
PSMC2DCS                          00000EBB
PSMC2EN                           00000007
PSMC2FEBS                         00000EB9
PSMC2FFA                          00000ECD
PSMC2FFA0                         00000000
PSMC2FFA1                         00000001
PSMC2FFA2                         00000002
PSMC2FFA3                         00000003
PSMC2INT                          00000EC0
PSMC2LD                           00000006
PSMC2MDL                          00000EB2
PSMC2OEN                          00000EB5
PSMC2PH                           00000EC1
MPASM 5.84               UNV_MASTER_MAIN.ASM   4-29-2026  14:26:15         PAGE 47


SYMBOL TABLE
  LABEL                             VALUE 

PSMC2PH0                          00000000
PSMC2PH1                          00000001
PSMC2PH10                         00000002
PSMC2PH11                         00000003
PSMC2PH12                         00000004
PSMC2PH13                         00000005
PSMC2PH14                         00000006
PSMC2PH15                         00000007
PSMC2PH2                          00000002
PSMC2PH3                          00000003
PSMC2PH4                          00000004
PSMC2PH5                          00000005
PSMC2PH6                          00000006
PSMC2PH7                          00000007
PSMC2PH8                          00000000
PSMC2PH9                          00000001
PSMC2PHH                          00000EC2
PSMC2PHL                          00000EC1
PSMC2PHS                          00000EBA
PSMC2POL                          00000EB6
PSMC2PR                           00000EC5
PSMC2PR0                          00000000
PSMC2PR1                          00000001
PSMC2PR10                         00000002
PSMC2PR11                         00000003
PSMC2PR12                         00000004
PSMC2PR13                         00000005
PSMC2PR14                         00000006
PSMC2PR15                         00000007
PSMC2PR2                          00000002
PSMC2PR3                          00000003
PSMC2PR4                          00000004
PSMC2PR5                          00000005
PSMC2PR6                          00000006
PSMC2PR7                          00000007
PSMC2PR8                          00000000
PSMC2PR9                          00000001
PSMC2PRH                          00000EC6
PSMC2PRL                          00000EC5
PSMC2PRS                          00000EBC
PSMC2REBS                         00000EB8
PSMC2SIE                          00000001
PSMC2SIF                          00000001
PSMC2STR0                         00000ECE
PSMC2STR1                         00000ECF
PSMC2SYNC                         00000EB3
PSMC2TIE                          00000005
PSMC2TIF                          00000005
PSMC2TMR                          00000EC7
PSMC2TMR0                         00000000
PSMC2TMR1                         00000001
PSMC2TMR10                        00000002
PSMC2TMR11                        00000003
MPASM 5.84               UNV_MASTER_MAIN.ASM   4-29-2026  14:26:15         PAGE 48


SYMBOL TABLE
  LABEL                             VALUE 

PSMC2TMR12                        00000004
PSMC2TMR13                        00000005
PSMC2TMR14                        00000006
PSMC2TMR15                        00000007
PSMC2TMR2                         00000002
PSMC2TMR3                         00000003
PSMC2TMR4                         00000004
PSMC2TMR5                         00000005
PSMC2TMR6                         00000006
PSMC2TMR7                         00000007
PSMC2TMR8                         00000000
PSMC2TMR9                         00000001
PSMC2TMRH                         00000EC8
PSMC2TMRL                         00000EC7
PSMC3ASDC                         00000EDD
PSMC3ASDL                         00000EDE
PSMC3ASDS                         00000EDF
PSMC3BLKF                         00000EEC
PSMC3BLKF0                        00000000
PSMC3BLKF1                        00000001
PSMC3BLKF2                        00000002
PSMC3BLKF3                        00000003
PSMC3BLKF4                        00000004
PSMC3BLKF5                        00000005
PSMC3BLKF6                        00000006
PSMC3BLKF7                        00000007
PSMC3BLKR                         00000EEB
PSMC3BLKR0                        00000000
PSMC3BLKR1                        00000001
PSMC3BLKR2                        00000002
PSMC3BLKR3                        00000003
PSMC3BLKR4                        00000004
PSMC3BLKR5                        00000005
PSMC3BLKR6                        00000006
PSMC3BLKR7                        00000007
PSMC3BLNK                         00000ED7
PSMC3CLK                          00000ED4
PSMC3CON                          00000ED1
PSMC3DBF                          00000EEA
PSMC3DBF0                         00000000
PSMC3DBF1                         00000001
PSMC3DBF2                         00000002
PSMC3DBF3                         00000003
PSMC3DBF4                         00000004
PSMC3DBF5                         00000005
PSMC3DBF6                         00000006
PSMC3DBF7                         00000007
PSMC3DBR                          00000EE9
PSMC3DBR0                         00000000
PSMC3DBR1                         00000001
PSMC3DBR2                         00000002
PSMC3DBR3                         00000003
PSMC3DBR4                         00000004
MPASM 5.84               UNV_MASTER_MAIN.ASM   4-29-2026  14:26:15         PAGE 49


SYMBOL TABLE
  LABEL                             VALUE 

PSMC3DBR5                         00000005
PSMC3DBR6                         00000006
PSMC3DBR7                         00000007
PSMC3DC                           00000EE3
PSMC3DC0                          00000000
PSMC3DC1                          00000001
PSMC3DC10                         00000002
PSMC3DC11                         00000003
PSMC3DC12                         00000004
PSMC3DC13                         00000005
PSMC3DC14                         00000006
PSMC3DC15                         00000007
PSMC3DC2                          00000002
PSMC3DC3                          00000003
PSMC3DC4                          00000004
PSMC3DC5                          00000005
PSMC3DC6                          00000006
PSMC3DC7                          00000007
PSMC3DC8                          00000000
PSMC3DC9                          00000001
PSMC3DCH                          00000EE4
PSMC3DCL                          00000EE3
PSMC3DCS                          00000EDB
PSMC3EN                           00000007
PSMC3FEBS                         00000ED9
PSMC3FFA                          00000EED
PSMC3FFA0                         00000000
PSMC3FFA1                         00000001
PSMC3FFA2                         00000002
PSMC3FFA3                         00000003
PSMC3INT                          00000EE0
PSMC3LD                           00000006
PSMC3MDL                          00000ED2
PSMC3OEN                          00000ED5
PSMC3PH                           00000EE1
PSMC3PH0                          00000000
PSMC3PH1                          00000001
PSMC3PH10                         00000002
PSMC3PH11                         00000003
PSMC3PH12                         00000004
PSMC3PH13                         00000005
PSMC3PH14                         00000006
PSMC3PH15                         00000007
PSMC3PH2                          00000002
PSMC3PH3                          00000003
PSMC3PH4                          00000004
PSMC3PH5                          00000005
PSMC3PH6                          00000006
PSMC3PH7                          00000007
PSMC3PH8                          00000000
PSMC3PH9                          00000001
PSMC3PHH                          00000EE2
PSMC3PHL                          00000EE1
MPASM 5.84               UNV_MASTER_MAIN.ASM   4-29-2026  14:26:15         PAGE 50


SYMBOL TABLE
  LABEL                             VALUE 

PSMC3PHS                          00000EDA
PSMC3POL                          00000ED6
PSMC3PR                           00000EE5
PSMC3PR0                          00000000
PSMC3PR1                          00000001
PSMC3PR10                         00000002
PSMC3PR11                         00000003
PSMC3PR12                         00000004
PSMC3PR13                         00000005
PSMC3PR14                         00000006
PSMC3PR15                         00000007
PSMC3PR2                          00000002
PSMC3PR3                          00000003
PSMC3PR4                          00000004
PSMC3PR5                          00000005
PSMC3PR6                          00000006
PSMC3PR7                          00000007
PSMC3PR8                          00000000
PSMC3PR9                          00000001
PSMC3PRH                          00000EE6
PSMC3PRL                          00000EE5
PSMC3PRS                          00000EDC
PSMC3REBS                         00000ED8
PSMC3SIE                          00000002
PSMC3SIF                          00000002
PSMC3STR0                         00000EEE
PSMC3STR1                         00000EEF
PSMC3SYNC                         00000ED3
PSMC3TIE                          00000006
PSMC3TIF                          00000006
PSMC3TMR                          00000EE7
PSMC3TMR0                         00000000
PSMC3TMR1                         00000001
PSMC3TMR10                        00000002
PSMC3TMR11                        00000003
PSMC3TMR12                        00000004
PSMC3TMR13                        00000005
PSMC3TMR14                        00000006
PSMC3TMR15                        00000007
PSMC3TMR2                         00000002
PSMC3TMR3                         00000003
PSMC3TMR4                         00000004
PSMC3TMR5                         00000005
PSMC3TMR6                         00000006
PSMC3TMR7                         00000007
PSMC3TMR8                         00000000
PSMC3TMR9                         00000001
PSMC3TMRH                         00000EE8
PSMC3TMRL                         00000EE7
PSMC4ASDC                         00000F1D
PSMC4ASDL                         00000F1E
PSMC4ASDS                         00000F1F
PSMC4BLKF                         00000F2C
MPASM 5.84               UNV_MASTER_MAIN.ASM   4-29-2026  14:26:15         PAGE 51


SYMBOL TABLE
  LABEL                             VALUE 

PSMC4BLKF0                        00000000
PSMC4BLKF1                        00000001
PSMC4BLKF2                        00000002
PSMC4BLKF3                        00000003
PSMC4BLKF4                        00000004
PSMC4BLKF5                        00000005
PSMC4BLKF6                        00000006
PSMC4BLKF7                        00000007
PSMC4BLKR                         00000F2B
PSMC4BLKR0                        00000000
PSMC4BLKR1                        00000001
PSMC4BLKR2                        00000002
PSMC4BLKR3                        00000003
PSMC4BLKR4                        00000004
PSMC4BLKR5                        00000005
PSMC4BLKR6                        00000006
PSMC4BLKR7                        00000007
PSMC4BLNK                         00000F17
PSMC4CLK                          00000F14
PSMC4CON                          00000F11
PSMC4DBF                          00000F2A
PSMC4DBF0                         00000000
PSMC4DBF1                         00000001
PSMC4DBF2                         00000002
PSMC4DBF3                         00000003
PSMC4DBF4                         00000004
PSMC4DBF5                         00000005
PSMC4DBF6                         00000006
PSMC4DBF7                         00000007
PSMC4DBR                          00000F29
PSMC4DBR0                         00000000
PSMC4DBR1                         00000001
PSMC4DBR2                         00000002
PSMC4DBR3                         00000003
PSMC4DBR4                         00000004
PSMC4DBR5                         00000005
PSMC4DBR6                         00000006
PSMC4DBR7                         00000007
PSMC4DC                           00000F23
PSMC4DC0                          00000000
PSMC4DC1                          00000001
PSMC4DC10                         00000002
PSMC4DC11                         00000003
PSMC4DC12                         00000004
PSMC4DC13                         00000005
PSMC4DC14                         00000006
PSMC4DC15                         00000007
PSMC4DC2                          00000002
PSMC4DC3                          00000003
PSMC4DC4                          00000004
PSMC4DC5                          00000005
PSMC4DC6                          00000006
PSMC4DC7                          00000007
MPASM 5.84               UNV_MASTER_MAIN.ASM   4-29-2026  14:26:15         PAGE 52


SYMBOL TABLE
  LABEL                             VALUE 

PSMC4DC8                          00000000
PSMC4DC9                          00000001
PSMC4DCH                          00000F24
PSMC4DCL                          00000F23
PSMC4DCS                          00000F1B
PSMC4EN                           00000007
PSMC4FEBS                         00000F19
PSMC4FFA                          00000F2D
PSMC4FFA0                         00000000
PSMC4FFA1                         00000001
PSMC4FFA2                         00000002
PSMC4FFA3                         00000003
PSMC4INT                          00000F20
PSMC4LD                           00000006
PSMC4MDL                          00000F12
PSMC4OEN                          00000F15
PSMC4PH                           00000F21
PSMC4PH0                          00000000
PSMC4PH1                          00000001
PSMC4PH10                         00000002
PSMC4PH11                         00000003
PSMC4PH12                         00000004
PSMC4PH13                         00000005
PSMC4PH14                         00000006
PSMC4PH15                         00000007
PSMC4PH2                          00000002
PSMC4PH3                          00000003
PSMC4PH4                          00000004
PSMC4PH5                          00000005
PSMC4PH6                          00000006
PSMC4PH7                          00000007
PSMC4PH8                          00000000
PSMC4PH9                          00000001
PSMC4PHH                          00000F22
PSMC4PHL                          00000F21
PSMC4PHS                          00000F1A
PSMC4POL                          00000F16
PSMC4PR                           00000F25
PSMC4PR0                          00000000
PSMC4PR1                          00000001
PSMC4PR10                         00000002
PSMC4PR11                         00000003
PSMC4PR12                         00000004
PSMC4PR13                         00000005
PSMC4PR14                         00000006
PSMC4PR15                         00000007
PSMC4PR2                          00000002
PSMC4PR3                          00000003
PSMC4PR4                          00000004
PSMC4PR5                          00000005
PSMC4PR6                          00000006
PSMC4PR7                          00000007
PSMC4PR8                          00000000
MPASM 5.84               UNV_MASTER_MAIN.ASM   4-29-2026  14:26:15         PAGE 53


SYMBOL TABLE
  LABEL                             VALUE 

PSMC4PR9                          00000001
PSMC4PRH                          00000F26
PSMC4PRL                          00000F25
PSMC4PRS                          00000F1C
PSMC4REBS                         00000F18
PSMC4SIE                          00000003
PSMC4SIF                          00000003
PSMC4STR0                         00000F2E
PSMC4STR1                         00000F2F
PSMC4SYNC                         00000F13
PSMC4TIE                          00000007
PSMC4TIF                          00000007
PSMC4TMR                          00000F27
PSMC4TMR0                         00000000
PSMC4TMR1                         00000001
PSMC4TMR10                        00000002
PSMC4TMR11                        00000003
PSMC4TMR12                        00000004
PSMC4TMR13                        00000005
PSMC4TMR14                        00000006
PSMC4TMR15                        00000007
PSMC4TMR2                         00000002
PSMC4TMR3                         00000003
PSMC4TMR4                         00000004
PSMC4TMR5                         00000005
PSMC4TMR6                         00000006
PSMC4TMR7                         00000007
PSMC4TMR8                         00000000
PSMC4TMR9                         00000001
PSMC4TMRH                         00000F28
PSMC4TMRL                         00000F27
RA0                               00000000
RA1                               00000001
RA2                               00000002
RA3                               00000003
RA4                               00000004
RA5                               00000005
RA6                               00000006
RA7                               00000007
RB0                               00000000
RB1                               00000001
RB2                               00000002
RB3                               00000003
RB4                               00000004
RB5                               00000005
RB6                               00000006
RB7                               00000007
RC0                               00000000
RC1                               00000001
RC1REG                            00000199
RC1STA                            0000019D
RC2                               00000002
RC3                               00000003
MPASM 5.84               UNV_MASTER_MAIN.ASM   4-29-2026  14:26:15         PAGE 54


SYMBOL TABLE
  LABEL                             VALUE 

RC4                               00000004
RC5                               00000005
RC6                               00000006
RC7                               00000007
RCEN                              00000003
RCIDL                             00000006
RCIE                              00000005
RCIF                              00000005
RCREG                             00000199
RCREG1                            00000199
RCSTA                             0000019D
RCSTA1                            0000019D
RD                                00000000
RE3                               00000003
READ_STOP_DONE_2                  000000A0
ROBOT_ADDR                        00000021
RSEN                              00000001
RX9                               00000006
RX9D                              00000000
RXSEL                             00000001
R_NOT_W                           00000002
S                                 00000003
SBCDE                             00000002
SBOREN                            00000007
SCIE                              00000005
SCKP                              00000004
SCKSEL                            00000004
SCS0                              00000000
SCS1                              00000001
SDAHT                             00000003
SDISEL                            00000003
SDOSEL                            00000005
SEN                               00000000
SENDB                             00000003
SEND_I2C                          00000031
SEND_I2C_END                      0000005B
SETUP                             00000005
SLRCONA                           0000030C
SLRCONA0                          00000000
SLRCONA1                          00000001
SLRCONA2                          00000002
SLRCONA3                          00000003
SLRCONA4                          00000004
SLRCONA5                          00000005
SLRCONA6                          00000006
SLRCONA7                          00000007
SLRCONB                           0000030D
SLRCONB0                          00000000
SLRCONB1                          00000001
SLRCONB2                          00000002
SLRCONB3                          00000003
SLRCONB4                          00000004
SLRCONB5                          00000005
MPASM 5.84               UNV_MASTER_MAIN.ASM   4-29-2026  14:26:15         PAGE 55


SYMBOL TABLE
  LABEL                             VALUE 

SLRCONB6                          00000006
SLRCONB7                          00000007
SLRCONC                           0000030E
SLRCONC0                          00000000
SLRCONC1                          00000001
SLRCONC2                          00000002
SLRCONC3                          00000003
SLRCONC4                          00000004
SLRCONC5                          00000005
SLRCONC6                          00000006
SLRCONC7                          00000007
SMP                               00000007
SP                                00000006
SP1BRG                            0000019B
SP1BRGH                           0000019C
SP1BRGL                           0000019B
SPBRG                             0000019B
SPBRG1                            0000019B
SPBRGH                            0000019C
SPBRGH1                           0000019C
SPBRGL                            0000019B
SPEN                              00000007
SPLLEN                            00000007
SREN                              00000005
SSP1ADD                           00000212
SSP1ADD0                          00000000
SSP1ADD1                          00000001
SSP1ADD2                          00000002
SSP1ADD3                          00000003
SSP1ADD4                          00000004
SSP1ADD5                          00000005
SSP1ADD6                          00000006
SSP1ADD7                          00000007
SSP1BUF                           00000211
SSP1BUF0                          00000000
SSP1BUF1                          00000001
SSP1BUF2                          00000002
SSP1BUF3                          00000003
SSP1BUF4                          00000004
SSP1BUF5                          00000005
SSP1BUF6                          00000006
SSP1BUF7                          00000007
SSP1CON                           00000215
SSP1CON1                          00000215
SSP1CON2                          00000216
SSP1CON3                          00000217
SSP1IE                            00000003
SSP1IF                            00000003
SSP1MSK                           00000213
SSP1MSK0                          00000000
SSP1MSK1                          00000001
SSP1MSK2                          00000002
SSP1MSK3                          00000003
MPASM 5.84               UNV_MASTER_MAIN.ASM   4-29-2026  14:26:15         PAGE 56


SYMBOL TABLE
  LABEL                             VALUE 

SSP1MSK4                          00000004
SSP1MSK5                          00000005
SSP1MSK6                          00000006
SSP1MSK7                          00000007
SSP1STAT                          00000214
SSPADD                            00000212
SSPBUF                            00000211
SSPCON                            00000215
SSPCON1                           00000215
SSPCON2                           00000216
SSPCON3                           00000217
SSPEN                             00000005
SSPM0                             00000000
SSPM1                             00000001
SSPM2                             00000002
SSPM3                             00000003
SSPMSK                            00000213
SSPOV                             00000006
SSPSTAT                           00000214
START_READ_DONE_1                 00000064
START_READ_DONE_2                 00000081
START_WRITE_DONE                  00000022
STATUS                            00000003
STATUS_SHAD                       00000FE4
STKOVF                            00000007
STKPTR                            00000FED
STKUNF                            00000006
SWDTEN                            00000000
SYNC                              00000004
T0CS                              00000005
T0IE                              00000005
T0IF                              00000002
T0SE                              00000004
T1CKPS0                           00000004
T1CKPS1                           00000005
T1CON                             00000018
T1GCON                            00000019
T1GGO                             00000003
T1GPOL                            00000006
T1GSPM                            00000004
T1GSS0                            00000000
T1GSS1                            00000001
T1GTM                             00000005
T1GVAL                            00000002
T1OSCEN                           00000003
T1OSCR                            00000007
T2CKPS0                           00000000
T2CKPS1                           00000001
T2CON                             0000001C
T2OUTPS0                          00000003
T2OUTPS1                          00000004
T2OUTPS2                          00000005
T2OUTPS3                          00000006
MPASM 5.84               UNV_MASTER_MAIN.ASM   4-29-2026  14:26:15         PAGE 57


SYMBOL TABLE
  LABEL                             VALUE 

TMR0                              00000015
TMR0CS                            00000005
TMR0IE                            00000005
TMR0IF                            00000002
TMR0SE                            00000004
TMR1                              00000016
TMR1CS0                           00000006
TMR1CS1                           00000007
TMR1GE                            00000007
TMR1GIE                           00000007
TMR1GIF                           00000007
TMR1H                             00000017
TMR1IE                            00000000
TMR1IF                            00000000
TMR1L                             00000016
TMR1ON                            00000000
TMR2                              0000001A
TMR2IE                            00000001
TMR2IF                            00000001
TMR2ON                            00000002
TMR2_INTERRUPT                    00000018
TMR2_INTERRUPT_END                0000002F
TOSH                              00000FEF
TOSL                              00000FEE
TRIGSEL0                          00000004
TRIGSEL1                          00000005
TRIGSEL2                          00000006
TRIGSEL3                          00000007
TRISA                             0000008C
TRISA0                            00000000
TRISA1                            00000001
TRISA2                            00000002
TRISA3                            00000003
TRISA4                            00000004
TRISA5                            00000005
TRISA6                            00000006
TRISA7                            00000007
TRISB                             0000008D
TRISB0                            00000000
TRISB1                            00000001
TRISB2                            00000002
TRISB3                            00000003
TRISB4                            00000004
TRISB5                            00000005
TRISB6                            00000006
TRISB7                            00000007
TRISC                             0000008E
TRISC0                            00000000
TRISC1                            00000001
TRISC2                            00000002
TRISC3                            00000003
TRISC4                            00000004
TRISC5                            00000005
MPASM 5.84               UNV_MASTER_MAIN.ASM   4-29-2026  14:26:15         PAGE 58


SYMBOL TABLE
  LABEL                             VALUE 

TRISC6                            00000006
TRISC7                            00000007
TRISE                             00000090
TRISE3                            00000003
TRMT                              00000001
TSEN                              00000005
TSRNG                             00000004
TUN0                              00000000
TUN1                              00000001
TUN2                              00000002
TUN3                              00000003
TUN4                              00000004
TUN5                              00000005
TX1REG                            0000019A
TX1STA                            0000019E
TX9                               00000006
TX9D                              00000000
TXEN                              00000005
TXIE                              00000004
TXIF                              00000004
TXREG                             0000019A
TXREG1                            0000019A
TXSEL                             00000002
TXSTA                             0000019E
TXSTA1                            0000019E
UA                                00000001
UART_RX                           00000000
UART_RX_END                       00000051
UPDATE_I2C                        00000027
VREGCON                           00000197
VREGPM                            00000001
W                                 00000000
WCOL                              00000007
WDTCON                            00000097
WDTPS0                            00000001
WDTPS1                            00000002
WDTPS2                            00000003
WDTPS3                            00000004
WDTPS4                            00000005
WPUA                              0000020C
WPUA0                             00000000
WPUA1                             00000001
WPUA2                             00000002
WPUA3                             00000003
WPUA4                             00000004
WPUA5                             00000005
WPUA6                             00000006
WPUA7                             00000007
WPUB                              0000020D
WPUB0                             00000000
WPUB1                             00000001
WPUB2                             00000002
WPUB3                             00000003
MPASM 5.84               UNV_MASTER_MAIN.ASM   4-29-2026  14:26:15         PAGE 59


SYMBOL TABLE
  LABEL                             VALUE 

WPUB4                             00000004
WPUB5                             00000005
WPUB6                             00000006
WPUB7                             00000007
WPUC                              0000020E
WPUC0                             00000000
WPUC1                             00000001
WPUC2                             00000002
WPUC3                             00000003
WPUC4                             00000004
WPUC5                             00000005
WPUC6                             00000006
WPUC7                             00000007
WPUE                              00000210
WPUE3                             00000003
WR                                00000001
WREG                              00000009
WREG_SHAD                         00000FE5
WREN                              00000002
WRERR                             00000003
WUE                               00000001
Z                                 00000002
Z_SHAD                            00000002
_BOREN_NSLEEP                     00003DFF
_BOREN_OFF                        000039FF
_BOREN_ON                         00003FFF
_BOREN_SBODEN                     00003BFF
_BORV_HI                          00003BFF
_BORV_LO                          00003FFF
_CLKOUTEN_OFF                     00003FFF
_CLKOUTEN_ON                      000037FF
_CONFIG1                          00008007
_CONFIG2                          00008008
_CPD_OFF                          00003FFF
_CPD_ON                           00003EFF
_CP_OFF                           00003FFF
_CP_ON                            00003F7F
_DEVID1                           00008006
_FCMEN_OFF                        00001FFF
_FCMEN_ON                         00003FFF
_FOSC_ECH                         00003FFF
_FOSC_ECL                         00003FFD
_FOSC_ECM                         00003FFE
_FOSC_EXTRC                       00003FFB
_FOSC_HS                          00003FFA
_FOSC_INTOSC                      00003FFC
_FOSC_LP                          00003FF8
_FOSC_XT                          00003FF9
_IDLOC0                           00008000
_IDLOC1                           00008001
_IDLOC2                           00008002
_IDLOC3                           00008003
_IESO_OFF                         00002FFF
MPASM 5.84               UNV_MASTER_MAIN.ASM   4-29-2026  14:26:15         PAGE 60


SYMBOL TABLE
  LABEL                             VALUE 

_IESO_ON                          00003FFF
_LPBOR_OFF                        00003FFF
_LPBOR_ON                         000037FF
_LVP_OFF                          00001FFF
_LVP_ON                           00003FFF
_MCLRE_OFF                        00003FBF
_MCLRE_ON                         00003FFF
_PLLEN_OFF                        00003EFF
_PLLEN_ON                         00003FFF
_PWRTE_OFF                        00003FFF
_PWRTE_ON                         00003FDF
_STVREN_OFF                       00003DFF
_STVREN_ON                        00003FFF
_VCAPEN_OFF                       00003FFF
_VCAPEN_ON                        00003FDF
_WDTE_NSLEEP                      00003FF7
_WDTE_OFF                         00003FE7
_WDTE_ON                          00003FFF
_WDTE_SWDTEN                      00003FEF
_WRT_ALL                          00003FFC
_WRT_BOOT                         00003FFE
_WRT_HALF                         00003FFD
_WRT_OFF                          00003FFF
__16LF1788                        00000001

Errors   :     0
Warnings :     0 reported,     0 suppressed
Messages :   106 reported,     0 suppressed

